BL51 BANKED LINKER/LOCATER V6.22.2.0                                                    06/01/2023  21:05:43  PAGE 1


BL51 BANKED LINKER/LOCATER V6.22.2.0, INVOKED BY:
D:\C51\BIN\BL51.EXE main.obj TO 光立方综合功能程序 RAMSIZE (256)


MEMORY MODEL: LARGE


INPUT MODULES INCLUDED:
  main.obj (MAIN)
  D:\C51\LIB\C51L.LIB (?C_STARTUP)
  D:\C51\LIB\C51L.LIB (?C?COPY)
  D:\C51\LIB\C51L.LIB (?C?CLDPTR)
  D:\C51\LIB\C51L.LIB (?C?CLDOPTR)
  D:\C51\LIB\C51L.LIB (?C?CSTPTR)
  D:\C51\LIB\C51L.LIB (?C?CSTOPTR)
  D:\C51\LIB\C51L.LIB (?C?IMUL)
  D:\C51\LIB\C51L.LIB (?C?UIDIV)
  D:\C51\LIB\C51L.LIB (?C?SIDIV)
  D:\C51\LIB\C51L.LIB (?C?ILDIX)
  D:\C51\LIB\C51L.LIB (?C_INIT)


LINK MAP OF MODULE:  光立方综合功能程序 (MAIN)


            TYPE    BASE      LENGTH    RELOCATION   SEGMENT NAME
            -----------------------------------------------------

            * * * * * * *   D A T A   M E M O R Y   * * * * * * *
            REG     0000H     0008H     ABSOLUTE     "REG BANK 0"
            REG     0008H     0008H     ABSOLUTE     "REG BANK 1"
                    0010H     0010H                  *** GAP ***
            BIT     0020H.0   0001H.7   UNIT         ?BI?MAIN
                    0021H.7   0000H.1                *** GAP ***
            DATA    0022H     005DH     UNIT         ?DT?MAIN
            IDATA   007FH     0001H     UNIT         ?STACK

            * * * * * * *  X D A T A   M E M O R Y  * * * * * * *
            XDATA   0000H     0225H     UNIT         ?XD?MAIN
            XDATA   0225H     00A0H     UNIT         _XDATA_GROUP_
            XDATA   02C5H     0042H     UNIT         ?XD?_TURN_ON?MAIN

            * * * * * * *   C O D E   M E M O R Y   * * * * * * *
            CODE    0000H     0003H     ABSOLUTE     
            CODE    0003H     0003H     ABSOLUTE     
                    0006H     0005H                  *** GAP ***
            CODE    000BH     0003H     ABSOLUTE     
            CODE    000EH     0014H     UNIT         ?PR?ADC0_INIT?MAIN
                    0022H     0001H                  *** GAP ***
            CODE    0023H     0003H     ABSOLUTE     
            CODE    0026H     2CE9H     UNIT         ?CO?MAIN
            CODE    2D0FH     07ADH     UNIT         ?PR?FLASH_5?MAIN
            CODE    34BCH     062CH     UNIT         ?PR?_QUMIANXUANZHUAN?MAIN
            CODE    3AE8H     0607H     UNIT         ?PR?FLASH_10?MAIN
            CODE    40EFH     0583H     UNIT         ?PR?FLASH_23?MAIN
            CODE    4672H     0566H     UNIT         ?PR?FLASH_9?MAIN
            CODE    4BD8H     04C1H     UNIT         ?PR?_MOVE?MAIN
            CODE    5099H     04B4H     UNIT         ?PR?_VOL_WATCH_1?MAIN
BL51 BANKED LINKER/LOCATER V6.22.2.0                                                  06/01/2023  21:05:43  PAGE 2


            CODE    554DH     0482H     UNIT         ?PR?_BOX?MAIN
            CODE    59CFH     03DDH     UNIT         ?PR?_WATER3?MAIN
            CODE    5DACH     03B0H     UNIT         ?PR?PRINT1?MAIN
            CODE    615CH     036EH     UNIT         ?PR?_QUMIANXUANZHUAN2?MAIN
            CODE    64CAH     0317H     UNIT         ?PR?DONGHUA_MOSHI?MAIN
            CODE    67E1H     0311H     UNIT         ?PR?FLASH_4?MAIN
            CODE    6AF2H     02FDH     UNIT         ?PR?_RAIN?MAIN
            CODE    6DEFH     02B9H     UNIT         ?PR?_ZIMU?MAIN
            CODE    70A8H     02A9H     UNIT         ?PR?_WATER2?MAIN
            CODE    7351H     0296H     UNIT         ?PR?_PRINT?MAIN
            CODE    75E7H     0290H     UNIT         ?PR?IR_IN?MAIN
            CODE    7877H     0289H     UNIT         ?PR?_VOL_WATCH_0?MAIN
            CODE    7B00H     026DH     UNIT         ?PR?_JB0?MAIN
            CODE    7D6DH     0269H     UNIT         ?PR?YINYUE_MOSHI?MAIN
            CODE    7FD6H     0266H     UNIT         ?PR?_SHENSUO?MAIN
            CODE    823CH     0228H     UNIT         ?PR?FLASH_27?MAIN
            CODE    8464H     0223H     UNIT         ?C?LIB_CODE
            CODE    8687H     0211H     UNIT         ?PR?_ZHEN?MAIN
            CODE    8898H     01EAH     UNIT         ?PR?_PRODUCE_EMPTY?MAIN
            CODE    8A82H     01C9H     UNIT         ?PR?_WATER1?MAIN
            CODE    8C4BH     01ABH     UNIT         ?PR?_ROLL_3_XY?MAIN
            CODE    8DF6H     01A5H     UNIT         ?PR?_CUBE?MAIN
            CODE    8F9BH     01A0H     UNIT         ?PR?VOL_WATCH_2?MAIN
            CODE    913BH     019FH     UNIT         ?PR?_LINK?MAIN
            CODE    92DAH     019CH     UNIT         ?PR?_LEITU?MAIN
            CODE    9476H     0192H     UNIT         ?PR?FLASH_11?MAIN
            CODE    9608H     0190H     UNIT         ?PR?_LINE?MAIN
            CODE    9798H     018DH     UNIT         ?PR?_HY?MAIN
            CODE    9925H     0181H     UNIT         ?PR?_ROLL_APEAK_XY?MAIN
            CODE    9AA6H     0180H     UNIT         ?PR?XIUGAIDONGHUA_MOSHI?MAIN
            CODE    9C26H     0173H     UNIT         ?PR?_PIAOZHI?MAIN
            CODE    9D99H     015AH     UNIT         ?PR?_ROLL_APEAK_YZ?MAIN
            CODE    9EF3H     0157H     UNIT         ?PR?FLASH_25?MAIN
            CODE    A04AH     0147H     UNIT         ?PR?_H_SCAN?MAIN
            CODE    A191H     013DH     UNIT         ?PR?_YINCHU?MAIN
            CODE    A2CEH     013DH     UNIT         ?PR?_BOX_APEAK_XY?MAIN
            CODE    A40BH     0138H     UNIT         ?PR?_TRANOUTCHAR_CU1?MAIN
            CODE    A543H     0137H     UNIT         ?PR?_TRANOUTCHAR_CU?MAIN
            CODE    A67AH     0134H     UNIT         ?PR?_TRANOUTCHAR?MAIN
            CODE    A7AEH     012DH     UNIT         ?PR?FLASH_3?MAIN
            CODE    A8DBH     0127H     UNIT         ?PR?XZCUBE?MAIN
            CODE    AA02H     0125H     UNIT         ?PR?FLASH_28?MAIN
            CODE    AB27H     011FH     UNIT         ?PR?_SZFC0?MAIN
            CODE    AC46H     011CH     UNIT         ?PR?_V_SCAN?MAIN
            CODE    AD62H     011BH     UNIT         ?PR?_XUANZHUANTIAO?MAIN
            CODE    AE7DH     0118H     UNIT         ?PR?_TRAILLER?MAIN
            CODE    AF95H     010AH     UNIT         ?PR?_TURN_ON?MAIN
            CODE    B09FH     00FEH     UNIT         ?PR?FLASH_20?MAIN
            CODE    B19DH     00FAH     UNIT         ?PR?_SHANDIAN?MAIN
            CODE    B297H     00F7H     UNIT         ?PR?_FUN1?MAIN
            CODE    B38EH     00F0H     UNIT         ?PR?FLASH_2?MAIN
            CODE    B47EH     00E7H     UNIT         ?PR?_W_SIDE?MAIN
            CODE    B565H     00DEH     UNIT         ?PR?FLASH_7?MAIN
            CODE    B643H     00D8H     UNIT         ?PR?_PRODUCE_CUBE?MAIN
            CODE    B71BH     00C0H     UNIT         ?PR?LINK00?MAIN
            CODE    B7DBH     00B6H     UNIT         ?C_INITSEG
            CODE    B891H     00B5H     UNIT         ?PR?_XUANZHUANTIAO2?MAIN
BL51 BANKED LINKER/LOCATER V6.22.2.0                                                  06/01/2023  21:05:43  PAGE 3


            CODE    B946H     00AFH     UNIT         ?PR?MAIN?MAIN
            CODE    B9F5H     00A7H     UNIT         ?PR?_BOXTOLA?MAIN
            CODE    BA9CH     00A3H     UNIT         ?PR?SHUDU_JIA?MAIN
            CODE    BB3FH     009CH     UNIT         ?PR?VOL_WATCH_3?MAIN
            CODE    BBDBH     0097H     UNIT         ?PR?SHUDU_JIAN?MAIN
            CODE    BC72H     0096H     UNIT         ?PR?PWM_LED?MAIN
            CODE    BD08H     008CH     UNIT         ?C_C51STARTUP
            CODE    BD94H     0082H     UNIT         ?PR?FLASH_24?MAIN
            CODE    BE16H     007FH     UNIT         ?PR?_DONGHUA?MAIN
            CODE    BE95H     007CH     UNIT         ?PR?_ROLLDISPLAY_YD?MAIN
            CODE    BF11H     0076H     UNIT         ?PR?_CIRP?MAIN
            CODE    BF87H     0071H     UNIT         ?PR?_W_SCAN?MAIN
            CODE    BFF8H     006FH     UNIT         ?PR?FLASH_39?MAIN
            CODE    C067H     006DH     UNIT         ?PR?SHANGWEIJI_MOSHI?MAIN
            CODE    C0D4H     006CH     UNIT         ?PR?KEY_BAIHEI_SCAN?MAIN
            CODE    C140H     006AH     UNIT         ?PR?_POINT?MAIN
            CODE    C1AAH     0061H     UNIT         ?PR?_LINK_JB0?MAIN
            CODE    C20BH     0061H     UNIT         ?PR?_SENDBYTE?MAIN
            CODE    C26CH     005CH     UNIT         ?PR?_VOIVOL?MAIN
            CODE    C2C8H     005AH     UNIT         ?PR?_HANSAO?MAIN
            CODE    C322H     0059H     UNIT         ?PR?FLASH_14?MAIN
            CODE    C37BH     0059H     UNIT         ?PR?_SENDBYTE1?MAIN
            CODE    C3D4H     0054H     UNIT         ?PR?FLASH_44?MAIN
            CODE    C428H     0053H     UNIT         ?PR?SERIAL?MAIN
            CODE    C47BH     0052H     UNIT         ?PR?_TRANS?MAIN
            CODE    C4CDH     0052H     UNIT         ?PR?FLASH_43?MAIN
            CODE    C51FH     0047H     UNIT         ?PR?FLASH_13?MAIN
            CODE    C566H     0045H     UNIT         ?PR?FLASH_19?MAIN
            CODE    C5ABH     0042H     UNIT         ?PR?FLASH_36?MAIN
            CODE    C5EDH     0040H     UNIT         ?PR?FLASH_21?MAIN
            CODE    C62DH     0040H     UNIT         ?PR?FLASH_30?MAIN
            CODE    C66DH     0040H     UNIT         ?PR?YINYUE_KEY2?MAIN
            CODE    C6ADH     003FH     UNIT         ?PR?_MAX?MAIN
            CODE    C6ECH     003DH     UNIT         ?PR?_TYPE?MAIN
            CODE    C729H     003DH     UNIT         ?PR?_TYPE_SJ?MAIN
            CODE    C766H     003CH     UNIT         ?PR?_POKE?MAIN
            CODE    C7A2H     003CH     UNIT         ?PR?_TYPE1?MAIN
            CODE    C7DEH     003CH     UNIT         ?PR?DONGHUA_KEY2?MAIN
            CODE    C81AH     003CH     UNIT         ?PR?GAIZI_KEY2?MAIN
            CODE    C856H     0032H     UNIT         ?PR?FLASH_1?MAIN
            CODE    C888H     0032H     UNIT         ?PR?FLASH_31?MAIN
            CODE    C8BAH     0030H     UNIT         ?PR?FLASH_8?MAIN
            CODE    C8EAH     002DH     UNIT         ?PR?_CLEAR?MAIN
            CODE    C917H     002BH     UNIT         ?PR?TRANSSS?MAIN
            CODE    C942H     002BH     UNIT         ?PR?_DELAY?MAIN
            CODE    C96DH     002AH     UNIT         ?PR?_DAOXU?MAIN
            CODE    C997H     0028H     UNIT         ?PR?FLASH_17?MAIN
            CODE    C9BFH     0026H     UNIT         ?PR?FLASH_22?MAIN
            CODE    C9E5H     0026H     UNIT         ?PR?FLASH_41?MAIN
            CODE    CA0BH     0026H     UNIT         ?PR?_DELAYUS?MAIN
            CODE    CA31H     0024H     UNIT         ?PR?FLASH_18?MAIN
            CODE    CA55H     0021H     UNIT         ?PR?INIT_UART?MAIN
            CODE    CA76H     0020H     UNIT         ?PR?FLASH_16?MAIN
            CODE    CA96H     0020H     UNIT         ?PR?FLASH_32?MAIN
            CODE    CAB6H     0020H     UNIT         ?PR?_DELAYS?MAIN
            CODE    CAD6H     001FH     UNIT         ?PR?READ_ADC0?MAIN
            CODE    CAF5H     001FH     UNIT         ?PR?INIT?MAIN
BL51 BANKED LINKER/LOCATER V6.22.2.0                                                  06/01/2023  21:05:43  PAGE 4


            CODE    CB14H     001EH     UNIT         ?PR?FLASH_40?MAIN
            CODE    CB32H     001EH     UNIT         ?PR?_DELAYYP?MAIN
            CODE    CB50H     001CH     UNIT         ?PR?FLASH_6?MAIN
            CODE    CB6CH     001BH     UNIT         ?PR?FLASH_34?MAIN
            CODE    CB87H     001AH     UNIT         ?PR?_ABS?MAIN
            CODE    CBA1H     001AH     UNIT         ?PR?FLASH_26?MAIN
            CODE    CBBBH     0017H     UNIT         ?PR?_JUDGEBIT?MAIN
            CODE    CBD2H     0016H     UNIT         ?PR?_IRDELAY?MAIN
            CODE    CBE8H     0014H     UNIT         ?PR?SINTER?MAIN
            CODE    CBFCH     0013H     UNIT         ?PR?_DELAYPWM?MAIN
            CODE    CC0FH     0012H     UNIT         ?PR?FLASH_15?MAIN
            CODE    CC21H     0010H     UNIT         ?PR?FLASH_33?MAIN
            CODE    CC31H     0010H     UNIT         ?PR?FLASH_35?MAIN
            CODE    CC41H     000FH     UNIT         ?PR?_MAXT?MAIN
            CODE    CC50H     000EH     UNIT         ?PR?FLASH_38?MAIN
            CODE    CC5EH     000EH     UNIT         ?PR?FLASH_42?MAIN
            CODE    CC6CH     000DH     UNIT         ?PR?_ABSS?MAIN
            CODE    CC79H     000CH     UNIT         ?PR?FLASH_12?MAIN
            CODE    CC85H     000CH     UNIT         ?PR?FLASH_37?MAIN
            CODE    CC91H     000AH     UNIT         ?PR?IRINIT?MAIN
            CODE    CC9BH     000AH     UNIT         ?PR?_IDELAY?MAIN
            CODE    CCA5H     0009H     UNIT         ?PR?DELAY10US?MAIN
            CODE    CCAEH     0009H     UNIT         ?PR?DELAY5US?MAIN



OVERLAY MAP OF MODULE:   光立方综合功能程序 (MAIN)


SEGMENT                                XDATA_GROUP
  +--> CALLED SEGMENT                START    LENGTH
----------------------------------------------------
?PR?IR_IN?MAIN                       -----    -----
  +--> ?PR?_IRDELAY?MAIN
  +--> ?PR?SHUDU_JIA?MAIN
  +--> ?PR?SHUDU_JIAN?MAIN

*** NEW ROOT ***************************************************

?PR?PRINT1?MAIN                      -----    -----
  +--> ?PR?_SENDBYTE?MAIN
  +--> ?PR?_HANSAO?MAIN
  +--> ?PR?_DELAYUS?MAIN
  +--> ?PR?KEY_BAIHEI_SCAN?MAIN

?PR?_SENDBYTE?MAIN                   0225H    0008H

?PR?_DELAYUS?MAIN                    -----    -----
  +--> ?PR?_HANSAO?MAIN

?PR?KEY_BAIHEI_SCAN?MAIN             -----    -----
  +--> ?PR?DELAY10US?MAIN
  +--> ?PR?SINTER?MAIN

*** NEW ROOT ***************************************************

?C_C51STARTUP                        -----    -----
BL51 BANKED LINKER/LOCATER V6.22.2.0                                                  06/01/2023  21:05:43  PAGE 5


  +--> ?PR?MAIN?MAIN
  +--> ?C_INITSEG

?PR?MAIN?MAIN                        022DH    0003H
  +--> ?PR?INIT?MAIN
  +--> ?PR?_IDELAY?MAIN
  +--> ?PR?IRINIT?MAIN
  +--> ?PR?ADC0_INIT?MAIN
  +--> ?PR?_CLEAR?MAIN
  +--> ?PR?PWM_LED?MAIN
  +--> ?PR?SINTER?MAIN
  +--> ?PR?_W_SCAN?MAIN
  +--> ?PR?_DELAY?MAIN
  +--> ?PR?YINYUE_MOSHI?MAIN
  +--> ?PR?DONGHUA_MOSHI?MAIN
  +--> ?PR?SHANGWEIJI_MOSHI?MAIN
  +--> ?PR?XIUGAIDONGHUA_MOSHI?MAIN

?PR?PWM_LED?MAIN                     0230H    0004H
  +--> ?PR?_DELAYPWM?MAIN

?PR?_W_SCAN?MAIN                     0230H    0042H
  +--> ?CO?MAIN
  +--> ?PR?_HY?MAIN
  +--> ?PR?_DELAY?MAIN

?PR?_HY?MAIN                         0272H    0046H
  +--> ?CO?MAIN
  +--> ?PR?_ZHEN?MAIN
  +--> ?PR?_DELAY?MAIN

?PR?_ZHEN?MAIN                       02B8H    0005H
  +--> ?PR?KEY_BAIHEI_SCAN?MAIN
  +--> ?PR?_SENDBYTE1?MAIN
  +--> ?PR?_DELAYUS?MAIN
  +--> ?PR?_DELAYS?MAIN

?PR?_SENDBYTE1?MAIN                  02BDH    0008H

?PR?_DELAY?MAIN                      -----    -----
  +--> ?PR?DELAY5US?MAIN

?PR?YINYUE_MOSHI?MAIN                -----    -----
  +--> ?CO?MAIN
  +--> ?PR?_HY?MAIN
  +--> ?PR?_W_SIDE?MAIN
  +--> ?PR?SINTER?MAIN
  +--> ?PR?YINYUE_KEY2?MAIN
  +--> ?PR?_CLEAR?MAIN
  +--> ?PR?_VOL_WATCH_0?MAIN
  +--> ?PR?_VOL_WATCH_1?MAIN
  +--> ?PR?VOL_WATCH_2?MAIN
  +--> ?PR?VOL_WATCH_3?MAIN

?PR?_W_SIDE?MAIN                     0230H    0049H
  +--> ?CO?MAIN
  +--> ?PR?_ZHEN?MAIN
BL51 BANKED LINKER/LOCATER V6.22.2.0                                                  06/01/2023  21:05:43  PAGE 6


  +--> ?PR?_DELAY?MAIN

?PR?_VOL_WATCH_0?MAIN                0230H    0007H
  +--> ?PR?_BOX?MAIN
  +--> ?PR?_VOIVOL?MAIN
  +--> ?PR?YINYUE_KEY2?MAIN

?PR?_BOX?MAIN                        023FH    0009H
  +--> ?PR?_MAX?MAIN

?PR?_MAX?MAIN                        0248H    0006H

?PR?_VOIVOL?MAIN                     023BH    0006H
  +--> ?PR?READ_ADC0?MAIN
  +--> ?PR?_DELAYYP?MAIN

?PR?_VOL_WATCH_1?MAIN                0230H    000BH
  +--> ?PR?_BOX?MAIN
  +--> ?PR?_VOIVOL?MAIN
  +--> ?CO?MAIN
  +--> ?PR?YINYUE_KEY2?MAIN

?PR?VOL_WATCH_2?MAIN                 0230H    0006H
  +--> ?PR?_CLEAR?MAIN
  +--> ?PR?_POINT?MAIN
  +--> ?PR?_BOX?MAIN
  +--> ?PR?_VOIVOL?MAIN
  +--> ?PR?YINYUE_KEY2?MAIN

?PR?_POINT?MAIN                      0256H    0006H

?PR?VOL_WATCH_3?MAIN                 0230H    0004H
  +--> ?PR?_VOIVOL?MAIN
  +--> ?PR?TRANSSS?MAIN
  +--> ?PR?_BOX_APEAK_XY?MAIN
  +--> ?PR?_DELAYYP?MAIN
  +--> ?PR?YINYUE_KEY2?MAIN

?PR?_BOX_APEAK_XY?MAIN               023FH    0009H
  +--> ?PR?_MAX?MAIN
  +--> ?PR?_LINE?MAIN

?PR?_LINE?MAIN                       0248H    000EH
  +--> ?CO?MAIN
  +--> ?PR?_ABSS?MAIN
  +--> ?PR?_MAXT?MAIN
  +--> ?PR?_ABS?MAIN
  +--> ?PR?_POINT?MAIN

?PR?DONGHUA_MOSHI?MAIN               -----    -----
  +--> ?PR?FLASH_20?MAIN
  +--> ?PR?SINTER?MAIN
  +--> ?PR?DONGHUA_KEY2?MAIN
  +--> ?PR?FLASH_21?MAIN
  +--> ?PR?FLASH_25?MAIN
  +--> ?PR?FLASH_28?MAIN
  +--> ?PR?FLASH_42?MAIN
BL51 BANKED LINKER/LOCATER V6.22.2.0                                                  06/01/2023  21:05:43  PAGE 7


  +--> ?PR?FLASH_15?MAIN
  +--> ?PR?_CLEAR?MAIN
  +--> ?CO?MAIN
  +--> ?PR?_PIAOZHI?MAIN
  +--> ?PR?FLASH_22?MAIN
  +--> ?PR?FLASH_23?MAIN
  +--> ?PR?FLASH_24?MAIN
  +--> ?PR?_V_SCAN?MAIN
  +--> ?PR?FLASH_26?MAIN
  +--> ?PR?FLASH_27?MAIN
  +--> ?PR?_H_SCAN?MAIN
  +--> ?PR?FLASH_30?MAIN
  +--> ?PR?FLASH_31?MAIN
  +--> ?PR?FLASH_32?MAIN
  +--> ?PR?FLASH_33?MAIN
  +--> ?PR?FLASH_34?MAIN
  +--> ?PR?FLASH_35?MAIN
  +--> ?PR?FLASH_36?MAIN
  +--> ?PR?FLASH_37?MAIN
  +--> ?PR?_W_SCAN?MAIN
  +--> ?PR?FLASH_38?MAIN
  +--> ?PR?FLASH_39?MAIN
  +--> ?PR?FLASH_40?MAIN
  +--> ?PR?FLASH_41?MAIN
  +--> ?PR?FLASH_1?MAIN
  +--> ?PR?FLASH_17?MAIN
  +--> ?PR?FLASH_16?MAIN
  +--> ?PR?FLASH_14?MAIN
  +--> ?PR?FLASH_18?MAIN
  +--> ?PR?FLASH_2?MAIN
  +--> ?PR?FLASH_3?MAIN
  +--> ?PR?FLASH_4?MAIN
  +--> ?PR?FLASH_5?MAIN
  +--> ?PR?FLASH_6?MAIN
  +--> ?PR?FLASH_7?MAIN
  +--> ?PR?FLASH_8?MAIN
  +--> ?PR?FLASH_9?MAIN
  +--> ?PR?FLASH_10?MAIN
  +--> ?PR?FLASH_11?MAIN
  +--> ?PR?FLASH_12?MAIN
  +--> ?PR?FLASH_13?MAIN
  +--> ?PR?FLASH_19?MAIN

?PR?FLASH_20?MAIN                    0230H    0041H
  +--> ?CO?MAIN
  +--> ?PR?_ZHEN?MAIN
  +--> ?PR?_DELAY?MAIN

?PR?FLASH_21?MAIN                    0230H    0001H
  +--> ?CO?MAIN
  +--> ?PR?_HY?MAIN

?PR?FLASH_25?MAIN                    0230H    0043H
  +--> ?CO?MAIN
  +--> ?PR?_ZHEN?MAIN
  +--> ?PR?_DELAY?MAIN
  +--> ?PR?_MOVE?MAIN
BL51 BANKED LINKER/LOCATER V6.22.2.0                                                  06/01/2023  21:05:43  PAGE 8



?PR?_MOVE?MAIN                       0279H    0008H

?PR?FLASH_28?MAIN                    -----    -----
  +--> ?PR?_WATER1?MAIN
  +--> ?PR?_WATER2?MAIN
  +--> ?PR?_WATER3?MAIN

?PR?_WATER1?MAIN                     0230H    0045H
  +--> ?CO?MAIN
  +--> ?PR?_ZHEN?MAIN
  +--> ?PR?_DELAY?MAIN

?PR?_WATER2?MAIN                     0230H    0047H
  +--> ?CO?MAIN
  +--> ?PR?_ZHEN?MAIN
  +--> ?PR?_DELAY?MAIN
  +--> ?PR?_MOVE?MAIN

?PR?_WATER3?MAIN                     0230H    0049H
  +--> ?CO?MAIN
  +--> ?PR?_ZHEN?MAIN
  +--> ?PR?_DELAY?MAIN
  +--> ?PR?_MOVE?MAIN

?PR?FLASH_42?MAIN                    -----    -----
  +--> ?PR?_SZFC0?MAIN

?PR?_SZFC0?MAIN                      0230H    0043H
  +--> ?CO?MAIN
  +--> ?PR?_ZHEN?MAIN
  +--> ?PR?_DELAY?MAIN

?PR?FLASH_15?MAIN                    -----    -----
  +--> ?PR?_RAIN?MAIN

?PR?_RAIN?MAIN                       0230H    0045H
  +--> ?CO?MAIN
  +--> ?PR?_ZHEN?MAIN
  +--> ?PR?_DELAY?MAIN
  +--> ?PR?_MOVE?MAIN

?PR?_PIAOZHI?MAIN                    0230H    000AH
  +--> ?PR?_ROLL_APEAK_YZ?MAIN
  +--> ?PR?_DELAY?MAIN
  +--> ?PR?_POINT?MAIN
  +--> ?PR?_TRANS?MAIN

?PR?_ROLL_APEAK_YZ?MAIN              023AH    0003H
  +--> ?PR?_DELAY?MAIN

?PR?_TRANS?MAIN                      023AH    0004H
  +--> ?PR?_DELAY?MAIN

?PR?FLASH_22?MAIN                    -----    -----
  +--> ?CO?MAIN
  +--> ?PR?_ZIMU?MAIN
BL51 BANKED LINKER/LOCATER V6.22.2.0                                                  06/01/2023  21:05:43  PAGE 9



?PR?_ZIMU?MAIN                       0230H    0072H
  +--> ?CO?MAIN
  +--> ?PR?_FUN1?MAIN
  +--> ?PR?_ZHEN?MAIN
  +--> ?PR?_DELAY?MAIN

?PR?_FUN1?MAIN                       02A2H    0008H
  +--> ?PR?_DAOXU?MAIN

?PR?FLASH_23?MAIN                    0230H    0044H
  +--> ?CO?MAIN
  +--> ?PR?_ZHEN?MAIN
  +--> ?PR?_DELAY?MAIN
  +--> ?PR?_MOVE?MAIN

?PR?FLASH_24?MAIN                    0230H    0042H
  +--> ?CO?MAIN
  +--> ?PR?_MOVE?MAIN
  +--> ?PR?_ZHEN?MAIN
  +--> ?PR?_DELAY?MAIN

?PR?_V_SCAN?MAIN                     0230H    0042H
  +--> ?CO?MAIN
  +--> ?PR?_ZHEN?MAIN
  +--> ?PR?_DELAY?MAIN

?PR?FLASH_26?MAIN                    -----    -----
  +--> ?CO?MAIN
  +--> ?PR?_LEITU?MAIN

?PR?_LEITU?MAIN                      0230H    0049H
  +--> ?CO?MAIN
  +--> ?PR?_ZHEN?MAIN
  +--> ?PR?_DELAY?MAIN
  +--> ?PR?_DELAYS?MAIN

?PR?FLASH_27?MAIN                    0230H    0044H
  +--> ?CO?MAIN
  +--> ?PR?_ZHEN?MAIN
  +--> ?PR?_DELAY?MAIN

?PR?_H_SCAN?MAIN                     0230H    0043H
  +--> ?CO?MAIN
  +--> ?PR?_ZHEN?MAIN
  +--> ?PR?_DELAY?MAIN

?PR?FLASH_30?MAIN                    0230H    0001H
  +--> ?CO?MAIN
  +--> ?PR?_PRINT?MAIN

?PR?_PRINT?MAIN                      0231H    0048H
  +--> ?CO?MAIN
  +--> ?PR?_ZHEN?MAIN
  +--> ?PR?_DELAY?MAIN

?PR?FLASH_31?MAIN                    -----    -----
BL51 BANKED LINKER/LOCATER V6.22.2.0                                                  06/01/2023  21:05:43  PAGE 10


  +--> ?PR?_LINK_JB0?MAIN
  +--> ?PR?_JB0?MAIN
  +--> ?CO?MAIN
  +--> ?PR?_YINCHU?MAIN

?PR?_LINK_JB0?MAIN                   0230H    0042H
  +--> ?CO?MAIN
  +--> ?PR?_ZHEN?MAIN
  +--> ?PR?_DELAY?MAIN

?PR?_JB0?MAIN                        0230H    0044H
  +--> ?CO?MAIN
  +--> ?PR?_ZHEN?MAIN
  +--> ?PR?_DELAY?MAIN

?PR?_YINCHU?MAIN                     0230H    0049H
  +--> ?CO?MAIN
  +--> ?PR?_ZHEN?MAIN
  +--> ?PR?_DELAY?MAIN

?PR?FLASH_32?MAIN                    -----    -----
  +--> ?PR?_LINK?MAIN
  +--> ?PR?_XUANZHUANTIAO?MAIN

?PR?_LINK?MAIN                       0230H    0043H
  +--> ?CO?MAIN
  +--> ?PR?_ZHEN?MAIN
  +--> ?PR?_DELAY?MAIN

?PR?_XUANZHUANTIAO?MAIN              0230H    0044H
  +--> ?CO?MAIN
  +--> ?PR?_ZHEN?MAIN
  +--> ?PR?_DELAY?MAIN

?PR?FLASH_33?MAIN                    -----    -----
  +--> ?PR?_XUANZHUANTIAO2?MAIN

?PR?_XUANZHUANTIAO2?MAIN             0230H    0043H
  +--> ?CO?MAIN
  +--> ?PR?_ZHEN?MAIN
  +--> ?PR?_DELAY?MAIN

?PR?FLASH_34?MAIN                    -----    -----
  +--> ?PR?_QUMIANXUANZHUAN?MAIN

?PR?_QUMIANXUANZHUAN?MAIN            0230H    0046H
  +--> ?CO?MAIN
  +--> ?PR?_ZHEN?MAIN
  +--> ?PR?_DELAY?MAIN
  +--> ?PR?_MOVE?MAIN

?PR?FLASH_35?MAIN                    -----    -----
  +--> ?PR?_QUMIANXUANZHUAN2?MAIN

?PR?_QUMIANXUANZHUAN2?MAIN           0230H    0045H
  +--> ?CO?MAIN
  +--> ?PR?_ZHEN?MAIN
BL51 BANKED LINKER/LOCATER V6.22.2.0                                                  06/01/2023  21:05:43  PAGE 11


  +--> ?PR?_DELAY?MAIN
  +--> ?PR?_MOVE?MAIN

?PR?FLASH_36?MAIN                    -----    -----
  +--> ?CO?MAIN
  +--> ?PR?_DONGHUA?MAIN
  +--> ?PR?XZCUBE?MAIN

?PR?_DONGHUA?MAIN                    0231H    0007H
  +--> ?CO?MAIN
  +--> ?PR?_ZHEN?MAIN
  +--> ?PR?_DELAY?MAIN

?PR?XZCUBE?MAIN                      0230H    0001H
  +--> ?PR?_DONGHUA?MAIN
  +--> ?CO?MAIN
  +--> ?PR?_ZHEN?MAIN
  +--> ?PR?_DELAY?MAIN

?PR?FLASH_37?MAIN                    -----    -----
  +--> ?PR?LINK00?MAIN

?PR?LINK00?MAIN                      0230H    0041H
  +--> ?CO?MAIN
  +--> ?PR?_ZHEN?MAIN
  +--> ?PR?_DELAY?MAIN
  +--> ?PR?_PRODUCE_CUBE?MAIN
  +--> ?PR?_MOVE?MAIN

?PR?_PRODUCE_CUBE?MAIN               0276H    0006H

?PR?FLASH_38?MAIN                    -----    -----
  +--> ?PR?_SHENSUO?MAIN

?PR?_SHENSUO?MAIN                    0230H    0043H
  +--> ?CO?MAIN
  +--> ?PR?_MOVE?MAIN
  +--> ?PR?_ZHEN?MAIN
  +--> ?PR?_DELAY?MAIN

?PR?FLASH_39?MAIN                    0230H    0002H
  +--> ?PR?_CUBE?MAIN

?PR?_CUBE?MAIN                       0232H    0044H
  +--> ?CO?MAIN
  +--> ?PR?_PRODUCE_CUBE?MAIN
  +--> ?PR?_PRODUCE_EMPTY?MAIN
  +--> ?PR?_MOVE?MAIN
  +--> ?PR?_ZHEN?MAIN
  +--> ?PR?_DELAY?MAIN

?PR?_PRODUCE_EMPTY?MAIN              0276H    0006H

?PR?FLASH_40?MAIN                    -----    -----
  +--> ?CO?MAIN
  +--> ?PR?_DONGHUA?MAIN

BL51 BANKED LINKER/LOCATER V6.22.2.0                                                  06/01/2023  21:05:43  PAGE 12


?PR?FLASH_41?MAIN                    0230H    0001H
  +--> ?PR?_SHANDIAN?MAIN

?PR?_SHANDIAN?MAIN                   0231H    0042H
  +--> ?CO?MAIN
  +--> ?PR?_ZHEN?MAIN
  +--> ?PR?_DELAY?MAIN

?PR?FLASH_1?MAIN                     0230H    0001H
  +--> ?PR?_CLEAR?MAIN
  +--> ?PR?_TYPE?MAIN
  +--> ?PR?_DELAY?MAIN

?PR?_TYPE?MAIN                       -----    -----
  +--> ?CO?MAIN

?PR?FLASH_17?MAIN                    -----    -----
  +--> ?PR?_CLEAR?MAIN
  +--> ?PR?_TYPE?MAIN
  +--> ?PR?_DELAY?MAIN
  +--> ?PR?_TRAILLER?MAIN

?PR?_TRAILLER?MAIN                   0231H    0004H
  +--> ?PR?_DELAY?MAIN

?PR?FLASH_16?MAIN                    -----    -----
  +--> ?CO?MAIN
  +--> ?PR?_ZIMU?MAIN

?PR?FLASH_14?MAIN                    0230H    0001H
  +--> ?PR?_CLEAR?MAIN
  +--> ?PR?_TYPE_SJ?MAIN
  +--> ?PR?_DELAY?MAIN

?PR?_TYPE_SJ?MAIN                    -----    -----
  +--> ?CO?MAIN

?PR?FLASH_18?MAIN                    -----    -----
  +--> ?CO?MAIN
  +--> ?PR?_PIAOZHI?MAIN

?PR?FLASH_2?MAIN                     0230H    0001H
  +--> ?PR?_CLEAR?MAIN
  +--> ?PR?_CIRP?MAIN
  +--> ?PR?_DELAY?MAIN

?PR?_CIRP?MAIN                       0231H    0001H
  +--> ?CO?MAIN
  +--> ?PR?_POINT?MAIN

?PR?FLASH_3?MAIN                     0230H    0001H
  +--> ?PR?_BOX_APEAK_XY?MAIN
  +--> ?PR?_DELAY?MAIN

?PR?FLASH_4?MAIN                     0230H    000AH
  +--> ?PR?_LINE?MAIN
  +--> ?PR?_DELAY?MAIN
BL51 BANKED LINKER/LOCATER V6.22.2.0                                                  06/01/2023  21:05:43  PAGE 13



?PR?FLASH_5?MAIN                     0230H    0008H
  +--> ?PR?_BOX_APEAK_XY?MAIN
  +--> ?PR?_DELAY?MAIN

?PR?FLASH_6?MAIN                     -----    -----
  +--> ?CO?MAIN
  +--> ?PR?_PIAOZHI?MAIN

?PR?FLASH_7?MAIN                     0230H    0003H
  +--> ?PR?_ROLL_APEAK_YZ?MAIN
  +--> ?PR?_BOX_APEAK_XY?MAIN
  +--> ?PR?_DELAY?MAIN
  +--> ?PR?_ROLL_3_XY?MAIN

?PR?_ROLL_3_XY?MAIN                  0233H    0003H
  +--> ?PR?_BOX_APEAK_XY?MAIN
  +--> ?PR?_DELAY?MAIN

?PR?FLASH_8?MAIN                     0230H    0001H
  +--> ?PR?_TRANOUTCHAR?MAIN
  +--> ?PR?_DELAY?MAIN

?PR?_TRANOUTCHAR?MAIN                0231H    0006H
  +--> ?PR?_BOX_APEAK_XY?MAIN
  +--> ?CO?MAIN
  +--> ?PR?_DELAY?MAIN

?PR?FLASH_9?MAIN                     0230H    000FH
  +--> ?PR?_BOX_APEAK_XY?MAIN
  +--> ?PR?_DELAY?MAIN
  +--> ?PR?_ROLL_APEAK_XY?MAIN
  +--> ?PR?_LINE?MAIN
  +--> ?PR?_CLEAR?MAIN
  +--> ?CO?MAIN
  +--> ?PR?_BOX?MAIN

?PR?_ROLL_APEAK_XY?MAIN              023FH    0003H
  +--> ?PR?_LINE?MAIN
  +--> ?PR?_DELAY?MAIN

?PR?FLASH_10?MAIN                    0230H    0009H
  +--> ?PR?_CLEAR?MAIN
  +--> ?PR?_BOX?MAIN
  +--> ?PR?_DELAY?MAIN
  +--> ?CO?MAIN

?PR?FLASH_11?MAIN                    0230H    0005H
  +--> ?PR?_CLEAR?MAIN
  +--> ?CO?MAIN
  +--> ?PR?_LINE?MAIN
  +--> ?PR?TRANSSS?MAIN
  +--> ?PR?_DELAY?MAIN
  +--> ?PR?_BOX_APEAK_XY?MAIN
  +--> ?PR?_POINT?MAIN

?PR?FLASH_12?MAIN                    -----    -----
BL51 BANKED LINKER/LOCATER V6.22.2.0                                                  06/01/2023  21:05:43  PAGE 14


  +--> ?PR?_CLEAR?MAIN
  +--> ?PR?_ROLLDISPLAY_YD?MAIN

?PR?_ROLLDISPLAY_YD?MAIN             0230H    0004H
  +--> ?CO?MAIN
  +--> ?PR?_BOXTOLA?MAIN
  +--> ?PR?_DELAY?MAIN

?PR?_BOXTOLA?MAIN                    0234H    0002H
  +--> ?PR?_POKE?MAIN

?PR?_POKE?MAIN                       0236H    0004H
  +--> ?PR?_JUDGEBIT?MAIN
  +--> ?PR?_POINT?MAIN

?PR?FLASH_13?MAIN                    0230H    0001H
  +--> ?PR?_CLEAR?MAIN
  +--> ?PR?_TYPE?MAIN
  +--> ?PR?_TRAILLER?MAIN
  +--> ?PR?_DELAY?MAIN

?PR?FLASH_19?MAIN                    0230H    0001H
  +--> ?PR?_TRANOUTCHAR_CU?MAIN
  +--> ?PR?_DELAY?MAIN

?PR?_TRANOUTCHAR_CU?MAIN             0231H    0006H
  +--> ?PR?_BOX_APEAK_XY?MAIN
  +--> ?CO?MAIN
  +--> ?PR?_DELAY?MAIN

?PR?SHANGWEIJI_MOSHI?MAIN            -----    -----
  +--> ?CO?MAIN
  +--> ?PR?_HY?MAIN
  +--> ?PR?_W_SIDE?MAIN
  +--> ?PR?INIT_UART?MAIN

?PR?XIUGAIDONGHUA_MOSHI?MAIN         -----    -----
  +--> ?CO?MAIN
  +--> ?PR?_HY?MAIN
  +--> ?PR?_W_SIDE?MAIN
  +--> ?PR?SINTER?MAIN
  +--> ?PR?GAIZI_KEY2?MAIN
  +--> ?PR?FLASH_13?MAIN
  +--> ?PR?FLASH_43?MAIN
  +--> ?PR?_CLEAR?MAIN
  +--> ?PR?FLASH_19?MAIN
  +--> ?PR?FLASH_44?MAIN
  +--> ?PR?_PIAOZHI?MAIN
  +--> ?PR?FLASH_22?MAIN
  +--> ?PR?_ZIMU?MAIN

?PR?FLASH_43?MAIN                    0230H    0001H
  +--> ?PR?_CLEAR?MAIN
  +--> ?PR?_TYPE1?MAIN
  +--> ?PR?_TRAILLER?MAIN
  +--> ?PR?_DELAY?MAIN

BL51 BANKED LINKER/LOCATER V6.22.2.0                                                  06/01/2023  21:05:43  PAGE 15


?PR?FLASH_44?MAIN                    0230H    0001H
  +--> ?PR?_TRANOUTCHAR_CU1?MAIN
  +--> ?PR?_DELAY?MAIN

?PR?_TRANOUTCHAR_CU1?MAIN            0231H    0006H
  +--> ?PR?_BOX_APEAK_XY?MAIN
  +--> ?PR?_DELAY?MAIN



UNRESOLVED EXTERNAL SYMBOLS:
   FVB



SYMBOL TABLE OF MODULE:  光立方综合功能程序 (MAIN)

  VALUE           TYPE          NAME
  ----------------------------------

  -------         MODULE        MAIN
  C:0000H         SYMBOL        _ICE_DUMMY_
  D:0093H         PUBLIC        P0M1
  D:0092H         PUBLIC        P1M0
  D:0096H         PUBLIC        P2M0
  D:0091H         PUBLIC        P1M1
  D:0080H         PUBLIC        P0
  D:00B2H         PUBLIC        P3M0
  D:0095H         PUBLIC        P2M1
  D:0090H         PUBLIC        P1
  D:00B4H         PUBLIC        P4M0
  D:00B1H         PUBLIC        P3M1
  D:00A0H         PUBLIC        P2
  C:C729H         PUBLIC        _type_sj
  C:A2F7H         PUBLIC        _box_apeak_xy
  D:00B3H         PUBLIC        P4M1
  D:00B0H         PUBLIC        P3
  C:C428H         PUBLIC        serial
  D:0022H         PUBLIC        ldjia_falg
  D:00C0H         PUBLIC        P4
  C:C671H         PUBLIC        yinyue_key2
  D:00C8H         PUBLIC        P5
  C:CAB6H         PUBLIC        _delays
  B:00A8H.7       PUBLIC        EA
  B:0020H.0       PUBLIC        kaiji_flag
  C:8898H         PUBLIC        _produce_empty
  C:7FD6H         PUBLIC        _shensuo
  C:C8EEH         PUBLIC        _clear
  C:AF95H         PUBLIC        _turn_on
  D:0023H         PUBLIC        sdjia_falg
  B:0020H.1       PUBLIC        abcd
  X:0001H         PUBLIC        shuzu8X8
  C:02EAH         PUBLIC        number
  C:C1AAH         PUBLIC        _link_jb0
  D:00A8H         PUBLIC        IE
  C:028AH         PUBLIC        table_3p
  C:B71BH         PUBLIC        link00
BL51 BANKED LINKER/LOCATER V6.22.2.0                                                  06/01/2023  21:05:43  PAGE 16


  C:C946H         PUBLIC        _delay
  C:75E7H         PUBLIC        IR_IN
  C:C917H         PUBLIC        transss
  D:0024H         PUBLIC        layerr
  C:A191H         PUBLIC        _yinchu
  D:00BDH         PUBLIC        ADC_RES
  C:A8DBH         PUBLIC        xzcube
  C:C37BH         PUBLIC        _sendbyte1
  D:0025H         PUBLIC        gaizi
  D:0026H         PUBLIC        pingpu
  X:0041H         PUBLIC        jcount
  B:00A8H.4       PUBLIC        ES
  C:0096H         PUBLIC        table_cha
  C:CBEBH         PUBLIC        sinter
  C:AD62H         PUBLIC        _xuanzhuantiao
  C:C0D4H         PUBLIC        key_baihei_scan
  D:00B8H         PUBLIC        IP
  D:0027H         PUBLIC        read_flag
  B:0098H.0       PUBLIC        RI
  D:0028H         PUBLIC        donghua1
  C:1F32H         PUBLIC        hart_table
  B:0020H.2       PUBLIC        gaizhiflag
  C:A40BH         PUBLIC        _tranoutchar_cu1
  B:0020H.3       PUBLIC        moshi_falg
  X:0042H         PUBLIC        date
  C:8DF6H         PUBLIC        _cube
  C:8C4BH         PUBLIC        _roll_3_xy
  C:C856H         PUBLIC        flash_1
  C:B38EH         PUBLIC        flash_2
  C:C270H         PUBLIC        _voivol
  D:0029H         PUBLIC        moshi
  D:002AH         PUBLIC        abc_falg
  C:A7AEH         PUBLIC        flash_3
  C:C96DH         PUBLIC        _daoxu
  C:2532H         PUBLIC        szfc_table
  D:00D8H         PUBLIC        CCON
  C:67E1H         PUBLIC        flash_4
  C:2D0FH         PUBLIC        flash_5
  C:92DAH         PUBLIC        _leitu
  C:B946H         PUBLIC        main
  C:CB50H         PUBLIC        flash_6
  C:0026H         PUBLIC        ZM
  X:0044H         PUBLIC        abc
  C:B565H         PUBLIC        flash_7
  X:0071H         PUBLIC        abc_char
  C:C8BAH         PUBLIC        flash_8
  C:4672H         PUBLIC        flash_9
  C:967CH         PUBLIC        _line
  D:002BH         PUBLIC        dong
  D:002CH         PUBLIC        dhms_falg
  C:CC6CH         PUBLIC        _abss
  C:615CH         PUBLIC        _qumianxuanzhuan2
  C:C47BH         PUBLIC        _trans
  C:7D6DH         PUBLIC        yinyue_moshi
  C:BC72H         PUBLIC        PWM_LED
  C:6AF2H         PUBLIC        _rain
  C:C140H         PUBLIC        _point
BL51 BANKED LINKER/LOCATER V6.22.2.0                                                  06/01/2023  21:05:43  PAGE 17


  C:CBD2H         PUBLIC        _IRdelay
  D:00BBH         PUBLIC        P4SW
  C:913BH         PUBLIC        _link
  C:7351H         PUBLIC        _print
  C:BF19H         PUBLIC        _cirp
  D:002DH         PUBLIC        ping
  D:002EH         PUBLIC        dnms_falg
  C:C766H         PUBLIC        _poke
  C:BBDBH         PUBLIC        shudu_jian
  C:CCAEH         PUBLIC        delay5us
  D:00BCH         PUBLIC        ADC_CONTR
  D:0099H         PUBLIC        SBUF
  D:0087H         PUBLIC        PCON
  C:08C2H         PUBLIC        tab_xuanzhuantiao
  C:CC91H         PUBLIC        IRInit
  D:002FH         PUBLIC        gai
  D:0030H         PUBLIC        saom
  B:00B0H.2       PUBLIC        IRIN
  C:A67AH         PUBLIC        _tranoutchar
  C:C067H         PUBLIC        shangweiji_moshi
  D:0098H         PUBLIC        SCON
  D:0089H         PUBLIC        TMOD
  D:0088H         PUBLIC        TCON
  C:CAF5H         PUBLIC        init
  D:0031H         PUBLIC        xsdsq
  C:CB8AH         PUBLIC        _abs
  C:05C2H         PUBLIC        tab_dian
  C:8692H         PUBLIC        _zhen
  C:4BE8H         PUBLIC        _move
  C:043AH         PUBLIC        flash0__tab
  C:01D6H         PUBLIC        dat
  C:CC9BH         PUBLIC        _IDelay
  X:008FH         PUBLIC        gaizi_san
  D:0032H         PUBLIC        sjms_falg
  C:CC41H         PUBLIC        _maxt
  C:7877H         PUBLIC        _Vol_watch_0
  X:00CFH         PUBLIC        shuzu8X81
  C:5099H         PUBLIC        _Vol_watch_1
  D:0033H         PUBLIC        ppms_falg
  C:8F9BH         PUBLIC        Vol_watch_2
  C:07C2H         PUBLIC        tab_water
  D:0034H         PUBLIC        gzms_falg
  C:BB3FH         PUBLIC        Vol_watch_3
  C:05B2H         PUBLIC        tab_mian
  B:0020H.4       PUBLIC        M_EN
  C:0AF2H         PUBLIC        bianxing_table
  D:008EH         PUBLIC        AUXR
  C:BA9CH         PUBLIC        shudu_jia
  C:25C2H         SYMBOL        _?ix1000
  B:0020H.5       PUBLIC        start_shuju
  C:2842H         SYMBOL        _?ix1010
  C:2602H         SYMBOL        _?ix1001
  C:C6ECH         PUBLIC        _type
  B:0020H.6       PUBLIC        busy
  C:2ACFH         SYMBOL        _?ix1020
  C:2882H         SYMBOL        _?ix1011
  C:2642H         SYMBOL        _?ix1002
BL51 BANKED LINKER/LOCATER V6.22.2.0                                                  06/01/2023  21:05:43  PAGE 18


  C:2582H         PUBLIC        tab_rain
  B:0020H.7       PUBLIC        gaizi1_flag
  D:0035H         PUBLIC        msd
  C:2B0FH         SYMBOL        _?ix1021
  C:28C2H         SYMBOL        _?ix1012
  C:2682H         SYMBOL        _?ix1003
  B:0021H.0       PUBLIC        gaizi2_flag
  D:0036H         PUBLIC        cnt
  D:0037H         PUBLIC        cot
  C:2B4FH         SYMBOL        _?ix1022
  C:2902H         SYMBOL        _?ix1013
  C:26C2H         SYMBOL        _?ix1004
  C:C6ADH         PUBLIC        _max
  C:6DEFH         PUBLIC        _zimu
  B:0021H.1       PUBLIC        gaizi3_flag
  D:0038H         PUBLIC        cd
  D:00E0H         PUBLIC        ACC
  C:2BCFH         SYMBOL        _?ix1023
  C:CC05H         PUBLIC        _Delaypwm
  C:2942H         SYMBOL        _?ix1014
  C:2702H         SYMBOL        _?ix1005
  C:0472H         PUBLIC        yc_table
  C:C7DEH         PUBLIC        donghua_key2
  X:010FH         PUBLIC        gaizi_geshu1
  B:0021H.2       PUBLIC        gaizi4_flag
  C:2C0FH         SYMBOL        _?ix1024
  C:2982H         SYMBOL        _?ix1015
  C:2742H         SYMBOL        _?ix1006
  C:08A2H         PUBLIC        tab_print
  C:015EH         PUBLIC        table_yd
  X:0110H         PUBLIC        gaizi_geshu2
  B:00A8H.1       PUBLIC        ET0
  C:2C4FH         SYMBOL        _?ix1025
  C:29C2H         SYMBOL        _?ix1016
  C:2782H         SYMBOL        _?ix1007
  C:556CH         PUBLIC        _box
  X:0111H         PUBLIC        gaizi_geshu3
  D:0039H         PUBLIC        displayck
  B:00A8H.3       PUBLIC        ET1
  C:2C8FH         SYMBOL        _?ix1026
  C:2A02H         SYMBOL        _?ix1017
  C:27C2H         SYMBOL        _?ix1008
  C:05BAH         PUBLIC        tab_xian
  C:B19DH         PUBLIC        _shandian
  C:B891H         PUBLIC        _xuanzhuantiao2
  C:2CCFH         SYMBOL        _?ix1027
  C:2A42H         SYMBOL        _?ix1018
  C:2802H         SYMBOL        _?ix1009
  B:00C0H.4       PUBLIC        PWM_POW
  D:008CH         PUBLIC        TH0
  C:2A8FH         SYMBOL        _?ix1019
  D:008DH         PUBLIC        TH1
  B:00A8H.0       PUBLIC        EX0
  C:A04AH         PUBLIC        _H_scan
  X:0112H         PUBLIC        gaizi_er
  C:02A2H         PUBLIC        table_3p_zf
  X:0152H         PUBLIC        ld
BL51 BANKED LINKER/LOCATER V6.22.2.0                                                  06/01/2023  21:05:43  PAGE 19


  D:008AH         PUBLIC        TL0
  D:008BH         PUBLIC        TL1
  C:3AE8H         PUBLIC        flash_10
  C:0116H         PUBLIC        table_cha_cu
  C:B09FH         PUBLIC        flash_20
  C:9476H         PUBLIC        flash_11
  C:CBBBH         PUBLIC        _judgebit
  C:C62DH         PUBLIC        flash_30
  C:C5EDH         PUBLIC        flash_21
  C:CC79H         PUBLIC        flash_12
  C:CB14H         PUBLIC        flash_40
  C:C888H         PUBLIC        flash_31
  C:C9BFH         PUBLIC        flash_22
  C:C51FH         PUBLIC        flash_13
  C:CA55H         PUBLIC        init_uart
  C:C9E5H         PUBLIC        flash_41
  C:CA96H         PUBLIC        flash_32
  C:40EFH         PUBLIC        flash_23
  C:C322H         PUBLIC        flash_14
  B:0088H.4       PUBLIC        TR0
  C:CAD6H         PUBLIC        Read_ADC0
  C:CC5EH         PUBLIC        flash_42
  C:CC21H         PUBLIC        flash_33
  C:BD94H         PUBLIC        flash_24
  C:CC0FH         PUBLIC        flash_15
  C:00D6H         PUBLIC        table_cha_sj
  C:8A82H         PUBLIC        _water1
  B:0088H.6       PUBLIC        TR1
  C:C4CDH         PUBLIC        flash_43
  C:CB6CH         PUBLIC        flash_34
  C:9EF3H         PUBLIC        flash_25
  C:CA76H         PUBLIC        flash_16
  C:70A8H         PUBLIC        _water2
  D:0079H         PUBLIC        sj_read_flag
  C:C3D4H         PUBLIC        flash_44
  C:CC31H         PUBLIC        flash_35
  C:CBA1H         PUBLIC        flash_26
  C:C997H         PUBLIC        flash_17
  C:59CFH         PUBLIC        _water3
  C:C5ABH         PUBLIC        flash_36
  C:823CH         PUBLIC        flash_27
  C:CA31H         PUBLIC        flash_18
  X:0154H         PUBLIC        gaizi_yi
  B:00B0H.7       PUBLIC        CLK
  C:CC85H         PUBLIC        flash_37
  C:AA02H         PUBLIC        flash_28
  C:C566H         PUBLIC        flash_19
  C:CC50H         PUBLIC        flash_38
  D:009DH         PUBLIC        P1ASF
  C:BFF8H         PUBLIC        flash_39
  C:1732H         PUBLIC        yx_table
  C:AC46H         PUBLIC        _V_scan
  C:CCA5H         PUBLIC        delay10us
  C:10B2H         PUBLIC        xz_table
  C:BF87H         PUBLIC        _W_scan
  C:B488H         PUBLIC        _W_side
  D:007AH         PUBLIC        gzdh3_falg
BL51 BANKED LINKER/LOCATER V6.22.2.0                                                  06/01/2023  21:05:43  PAGE 20


  D:00BEH         PUBLIC        ADC_RESL
  C:5DACH         PUBLIC        print1
  C:979CH         PUBLIC        _hy
  D:00B7H         PUBLIC        IPH
  X:0194H         PUBLIC        gzdh3
  B:0021H.3       PUBLIC        start1
  C:1DB2H         PUBLIC        x_table
  C:C20BH         PUBLIC        _sendbyte
  B:0021H.4       PUBLIC        start2
  X:0195H         PUBLIC        gzdh3_char
  C:1FB2H         PUBLIC        tab_shandian
  C:0DB2H         PUBLIC        y_table
  C:0932H         PUBLIC        tab_xuanzhuantiao2
  C:AE7DH         PUBLIC        _trailler
  B:0021H.5       PUBLIC        start3
  B:0090H.6       PUBLIC        M_HG_DS0
  C:0F32H         PUBLIC        z_table
  C:AB27H         PUBLIC        _szfc0
  X:01D5H         PUBLIC        liangdu
  B:0080H.7       PUBLIC        M_LG_DS0
  C:BE24H         PUBLIC        _donghua
  C:0256H         PUBLIC        dat2
  C:A543H         PUBLIC        _tranoutchar_cu
  C:0272H         PUBLIC        dat3
  C:64CAH         PUBLIC        donghua_moshi
  C:000EH         PUBLIC        ADC0_Init
  B:0090H.4       PUBLIC        M_HR_DS0
  X:01D7H         PUBLIC        gzms_falg1
  D:007BH         PUBLIC        ldjian_falg
  X:01D8H         PUBLIC        gzms_falg2
  D:00A2H         PUBLIC        AUXR1
  C:9925H         PUBLIC        _roll_apeak_xy
  X:01D9H         PUBLIC        gzms_falg3
  B:0090H.7       PUBLIC        M_LR_DS0
  C:C81AH         PUBLIC        gaizi_key2
  X:01DAH         PUBLIC        gzms_falg4
  C:C7A2H         PUBLIC        _type1
  C:BE95H         PUBLIC        _rolldisplay_yd
  C:9D9DH         PUBLIC        _roll_apeak_yz
  X:01DBH         PUBLIC        gzms_falg5
  X:01DCH         PUBLIC        donghua_shudu
  B:00B0H.6       PUBLIC        SUO
  C:B649H         PUBLIC        _produce_cube
  C:34BCH         PUBLIC        _qumianxuanzhuan
  C:9C26H         PUBLIC        _piaozhi
  D:007CH         PUBLIC        sdjian_falg
  C:9AA6H         PUBLIC        xiugaidonghua_moshi
  X:01DEH         PUBLIC        display
  D:00D0H         PUBLIC        PSW
  X:021EH         PUBLIC        IRCOM
  C:B297H         PUBLIC        _fun1
  C:CA1FH         PUBLIC        _delayus
  B:0021H.6       PUBLIC        key1
  B:0080H.0       PUBLIC        K1
  C:CB32H         PUBLIC        _delayyp
  C:7B00H         PUBLIC        _jb0
  D:007DH         PUBLIC        key2
BL51 BANKED LINKER/LOCATER V6.22.2.0                                                  06/01/2023  21:05:43  PAGE 21


  C:B9F5H         PUBLIC        _boxtola
  C:C2C8H         PUBLIC        _hansao
  D:007EH         PUBLIC        key3
  D:0094H         PUBLIC        P0M0
  -------         PROC          _JUDGEBIT
  D:0007H         SYMBOL        num
  D:0005H         SYMBOL        b
  -------         DO            
  D:0006H         SYMBOL        n
  -------         ENDDO         
  C:CBBBH         LINE#         7
  C:CBBBH         LINE#         8
  C:CBBBH         LINE#         10
  C:CBC7H         LINE#         11
  C:CBC9H         LINE#         12
  C:CBCDH         LINE#         14
  C:CBCFH         LINE#         15
  C:CBD1H         LINE#         16
  -------         ENDPROC       _JUDGEBIT
  -------         PROC          L?2741
  -------         ENDPROC       L?2741
  -------         PROC          _ABS
  D:0007H         SYMBOL        a
  -------         DO            
  D:0006H         SYMBOL        b
  -------         ENDDO         
  C:CB8AH         LINE#         18
  C:CB8AH         LINE#         19
  C:CB8AH         LINE#         21
  C:CB90H         LINE#         22
  C:CB98H         LINE#         23
  C:CB9DH         LINE#         24
  C:CB9EH         LINE#         25
  C:CBA0H         LINE#         26
  -------         ENDPROC       _ABS
  -------         PROC          _ABSS
  D:0007H         SYMBOL        a
  C:CC6CH         LINE#         28
  C:CC6CH         LINE#         29
  C:CC6CH         LINE#         30
  C:CC74H         LINE#         31
  C:CC78H         LINE#         32
  C:CC78H         LINE#         33
  -------         ENDPROC       _ABSS
  -------         PROC          _MAX
  X:0248H         SYMBOL        a
  X:024BH         SYMBOL        b
  -------         DO            
  D:0006H         SYMBOL        t
  -------         ENDDO         
  C:C6ADH         LINE#         36
  C:C6B8H         LINE#         37
  C:C6B8H         LINE#         39
  C:C6D8H         LINE#         40
  C:C6D8H         LINE#         41
  C:C6D8H         LINE#         42
  C:C6DCH         LINE#         43
BL51 BANKED LINKER/LOCATER V6.22.2.0                                                  06/01/2023  21:05:43  PAGE 22


  C:C6EBH         LINE#         44
  C:C6EBH         LINE#         45
  -------         ENDPROC       _MAX
  -------         PROC          _MAXT
  D:0007H         SYMBOL        a
  D:0005H         SYMBOL        b
  D:0003H         SYMBOL        c
  C:CC41H         LINE#         47
  C:CC41H         LINE#         48
  C:CC41H         LINE#         49
  C:CC46H         LINE#         50
  C:CC48H         LINE#         51
  C:CC4DH         LINE#         52
  C:CC4FH         LINE#         53
  C:CC4FH         LINE#         54
  -------         ENDPROC       _MAXT
  C:C8EAH         SYMBOL        L?2731
  -------         PROC          L?2730
  -------         ENDPROC       L?2730
  C:C8EAH         SYMBOL        L?2731
  -------         PROC          _CLEAR
  D:0007H         SYMBOL        le
  -------         DO            
  D:0005H         SYMBOL        i
  D:0006H         SYMBOL        j
  -------         ENDDO         
  C:C8EEH         LINE#         55
  C:C8EEH         LINE#         56
  C:C8EEH         LINE#         58
  C:C8F0H         LINE#         59
  C:C8F0H         LINE#         60
  C:C8F2H         LINE#         61
  C:C911H         LINE#         62
  C:C916H         LINE#         63
  -------         ENDPROC       _CLEAR
  -------         PROC          _TYPE
  D:0007H         SYMBOL        cha
  D:0005H         SYMBOL        y
  -------         DO            
  D:0006H         SYMBOL        xx
  -------         ENDDO         
  C:C6ECH         LINE#         64
  C:C6ECH         LINE#         65
  C:C6ECH         LINE#         67
  C:C6EEH         LINE#         68
  C:C6EEH         LINE#         69
  C:C723H         LINE#         70
  C:C728H         LINE#         71
  -------         ENDPROC       _TYPE
  -------         PROC          L?2738
  -------         ENDPROC       L?2738
  -------         PROC          _CIRP
  D:0007H         SYMBOL        cpp
  D:0005H         SYMBOL        dir
  D:0006H         SYMBOL        le
  -------         DO            
  D:0004H         SYMBOL        a
BL51 BANKED LINKER/LOCATER V6.22.2.0                                                  06/01/2023  21:05:43  PAGE 23


  D:0005H         SYMBOL        b
  D:0003H         SYMBOL        c
  X:0231H         SYMBOL        cp
  -------         ENDDO         
  C:BF19H         LINE#         76
  C:BF1BH         LINE#         77
  C:BF1BH         LINE#         79
  C:BF44H         LINE#         80
  C:BF44H         LINE#         81
  C:BF47H         LINE#         82
  C:BF51H         LINE#         84
  C:BF56H         LINE#         85
  C:BF65H         LINE#         86
  C:BF6BH         LINE#         87
  C:BF70H         LINE#         89
  C:BF78H         LINE#         90
  C:BF7CH         LINE#         91
  C:BF86H         LINE#         92
  C:BF86H         LINE#         93
  -------         ENDPROC       _CIRP
  -------         PROC          _TYPE_SJ
  D:0007H         SYMBOL        cha
  D:0005H         SYMBOL        y
  -------         DO            
  D:0006H         SYMBOL        xx
  -------         ENDDO         
  C:C729H         LINE#         95
  C:C729H         LINE#         96
  C:C729H         LINE#         98
  C:C72BH         LINE#         99
  C:C72BH         LINE#         100
  C:C760H         LINE#         101
  C:C765H         LINE#         102
  -------         ENDPROC       _TYPE_SJ
  C:554DH         SYMBOL        L?2721
  C:5568H         SYMBOL        L?2722
  -------         PROC          L?2720
  -------         ENDPROC       L?2720
  C:554DH         SYMBOL        L?2721
  C:5568H         SYMBOL        L?2722
  -------         PROC          _BOX
  X:023FH         SYMBOL        x1
  X:0240H         SYMBOL        z1
  X:0241H         SYMBOL        y1
  X:0242H         SYMBOL        x2
  X:0243H         SYMBOL        z2
  X:0244H         SYMBOL        y2
  X:0245H         SYMBOL        fill
  X:0246H         SYMBOL        le
  -------         DO            
  D:0007H         SYMBOL        i
  D:0004H         SYMBOL        j
  X:0247H         SYMBOL        t
  -------         ENDDO         
  C:556CH         LINE#         103
  C:5577H         LINE#         104
  C:5577H         LINE#         105
BL51 BANKED LINKER/LOCATER V6.22.2.0                                                  06/01/2023  21:05:43  PAGE 24


  C:557CH         LINE#         106
  C:5592H         LINE#         107
  C:55A9H         LINE#         108
  C:55C0H         LINE#         109
  C:55CFH         LINE#         110
  C:55E7H         LINE#         111
  C:55EEH         LINE#         112
  C:55F2H         LINE#         113
  C:55FBH         LINE#         114
  C:55FBH         LINE#         115
  C:55FEH         LINE#         116
  C:55FEH         LINE#         117
  C:5610H         LINE#         118
  C:5610H         LINE#         119
  C:561FH         LINE#         120
  C:564CH         LINE#         121
  C:564FH         LINE#         122
  C:564FH         LINE#         124
  C:564FH         LINE#         125
  C:5661H         LINE#         126
  C:5661H         LINE#         127
  C:5670H         LINE#         128
  C:569DH         LINE#         129
  C:56A0H         LINE#         130
  C:56A0H         LINE#         131
  C:56A0H         LINE#         133
  C:56A0H         LINE#         134
  C:56ACH         LINE#         135
  C:56ACH         LINE#         136
  C:56D9H         LINE#         137
  C:570BH         LINE#         138
  C:573DH         LINE#         139
  C:5768H         LINE#         140
  C:576BH         LINE#         142
  C:576BH         LINE#         143
  C:5798H         LINE#         144
  C:57CAH         LINE#         145
  C:57FCH         LINE#         146
  C:582CH         LINE#         147
  C:582CH         LINE#         148
  C:5852H         LINE#         149
  C:5859H         LINE#         150
  C:585DH         LINE#         151
  C:5863H         LINE#         152
  C:5863H         LINE#         153
  C:5872H         LINE#         154
  C:5872H         LINE#         155
  C:5881H         LINE#         156
  C:58AEH         LINE#         157
  C:58BDH         LINE#         158
  C:58CFH         LINE#         159
  C:58CFH         LINE#         160
  C:58DEH         LINE#         161
  C:590BH         LINE#         162
  C:591AH         LINE#         163
  C:591AH         LINE#         165
  C:591AH         LINE#         166
BL51 BANKED LINKER/LOCATER V6.22.2.0                                                  06/01/2023  21:05:43  PAGE 25


  C:5929H         LINE#         167
  C:5929H         LINE#         168
  C:5938H         LINE#         169
  C:5938H         LINE#         170
  C:5962H         LINE#         171
  C:5965H         LINE#         172
  C:5974H         LINE#         173
  C:5983H         LINE#         174
  C:5983H         LINE#         175
  C:5992H         LINE#         176
  C:5992H         LINE#         177
  C:59BCH         LINE#         178
  C:59BFH         LINE#         179
  C:59CEH         LINE#         180
  C:59CEH         LINE#         181
  C:59CEH         LINE#         182
  -------         ENDPROC       _BOX
  -------         PROC          _POKE
  X:0236H         SYMBOL        n
  X:0237H         SYMBOL        x
  X:0238H         SYMBOL        y
  -------         DO            
  X:0239H         SYMBOL        i
  -------         ENDDO         
  C:C766H         LINE#         184
  C:C771H         LINE#         185
  C:C771H         LINE#         187
  C:C77EH         LINE#         188
  C:C77EH         LINE#         189
  C:C799H         LINE#         190
  C:C7A1H         LINE#         191
  -------         ENDPROC       _POKE
  -------         PROC          _BOXTOLA
  X:0234H         SYMBOL        i
  X:0235H         SYMBOL        n
  C:B9F5H         LINE#         192
  C:B9FFH         LINE#         193
  C:B9FFH         LINE#         194
  C:BA22H         LINE#         195
  C:BA22H         LINE#         196
  C:BA31H         LINE#         197
  C:BA31H         LINE#         198
  C:BA55H         LINE#         199
  C:BA55H         LINE#         200
  C:BA66H         LINE#         201
  C:BA66H         LINE#         202
  C:BA8AH         LINE#         203
  C:BA8AH         LINE#         204
  C:BA9BH         LINE#         205
  C:BA9BH         LINE#         206
  -------         ENDPROC       _BOXTOLA
  -------         PROC          _ROLLDISPLAY_YD
  X:0230H         SYMBOL        speed
  -------         DO            
  X:0232H         SYMBOL        j
  X:0233H         SYMBOL        i
  D:0007H         SYMBOL        a
BL51 BANKED LINKER/LOCATER V6.22.2.0                                                  06/01/2023  21:05:43  PAGE 26


  -------         ENDDO         
  C:BE95H         LINE#         207
  C:BE9DH         LINE#         208
  C:BE9DH         LINE#         211
  C:BEAEH         LINE#         212
  C:BEAEH         LINE#         213
  C:BEBDH         LINE#         214
  C:BEBDH         LINE#         215
  C:BEC1H         LINE#         216
  C:BEE0H         LINE#         217
  C:BEECH         LINE#         218
  C:BEF4H         LINE#         219
  C:BEFFH         LINE#         220
  C:BF08H         LINE#         221
  C:BF10H         LINE#         222
  -------         ENDPROC       _ROLLDISPLAY_YD
  -------         PROC          _TRANOUTCHAR
  X:0231H         SYMBOL        c
  X:0232H         SYMBOL        speed
  -------         DO            
  X:0234H         SYMBOL        i
  D:0004H         SYMBOL        j
  D:0007H         SYMBOL        k
  X:0235H         SYMBOL        a
  X:0236H         SYMBOL        i2
  -------         ENDDO         
  C:A67AH         LINE#         224
  C:A685H         LINE#         225
  C:A685H         LINE#         226
  C:A68AH         LINE#         227
  C:A69BH         LINE#         228
  C:A69BH         LINE#         229
  C:A6A1H         LINE#         230
  C:A6BAH         LINE#         231
  C:A6D5H         LINE#         232
  C:A6DAH         LINE#         233
  C:A6E3H         LINE#         234
  C:A6EFH         LINE#         235
  C:A6EFH         LINE#         236
  C:A703H         LINE#         237
  C:A706H         LINE#         238
  C:A708H         LINE#         239
  C:A708H         LINE#         240
  C:A749H         LINE#         241
  C:A78AH         LINE#         242
  C:A793H         LINE#         243
  C:A79EH         LINE#         244
  C:A7A4H         LINE#         245
  C:A7ADH         LINE#         246
  -------         ENDPROC       _TRANOUTCHAR
  -------         PROC          _TRANOUTCHAR_CU
  X:0231H         SYMBOL        c
  X:0232H         SYMBOL        speed
  -------         DO            
  X:0234H         SYMBOL        i
  D:0004H         SYMBOL        j
  D:0007H         SYMBOL        k
BL51 BANKED LINKER/LOCATER V6.22.2.0                                                  06/01/2023  21:05:43  PAGE 27


  X:0235H         SYMBOL        a
  X:0236H         SYMBOL        i2
  -------         ENDDO         
  C:A543H         LINE#         247
  C:A54EH         LINE#         248
  C:A54EH         LINE#         249
  C:A553H         LINE#         250
  C:A564H         LINE#         251
  C:A564H         LINE#         252
  C:A56AH         LINE#         253
  C:A583H         LINE#         254
  C:A59EH         LINE#         255
  C:A5A3H         LINE#         256
  C:A5ACH         LINE#         257
  C:A5B8H         LINE#         258
  C:A5B8H         LINE#         259
  C:A5CCH         LINE#         260
  C:A5CFH         LINE#         261
  C:A5D1H         LINE#         262
  C:A5D1H         LINE#         263
  C:A612H         LINE#         264
  C:A653H         LINE#         265
  C:A65CH         LINE#         266
  C:A667H         LINE#         267
  C:A670H         LINE#         268
  C:A679H         LINE#         269
  -------         ENDPROC       _TRANOUTCHAR_CU
  -------         PROC          TRANSSS
  -------         DO            
  D:0007H         SYMBOL        i
  D:0006H         SYMBOL        j
  -------         ENDDO         
  C:C917H         LINE#         270
  C:C917H         LINE#         271
  C:C917H         LINE#         273
  C:C919H         LINE#         274
  C:C919H         LINE#         275
  C:C91BH         LINE#         276
  C:C93CH         LINE#         277
  C:C941H         LINE#         278
  -------         ENDPROC       TRANSSS
  -------         PROC          L?2739
  -------         ENDPROC       L?2739
  -------         PROC          _HY
  X:0272H         SYMBOL        tab
  X:0275H         SYMBOL        v
  -------         DO            
  X:0276H         SYMBOL        a
  X:02B6H         SYMBOL        i
  X:02B7H         SYMBOL        j
  -------         ENDDO         
  C:979CH         LINE#         280
  C:97AAH         LINE#         281
  C:97AAH         LINE#         282
  C:97BDH         LINE#         284
  C:97C2H         LINE#         285
  C:9802H         LINE#         286
BL51 BANKED LINKER/LOCATER V6.22.2.0                                                  06/01/2023  21:05:43  PAGE 28


  C:980BH         LINE#         287
  C:9815H         LINE#         288
  C:9818H         LINE#         290
  C:981EH         LINE#         291
  C:981EH         LINE#         292
  C:982FH         LINE#         293
  C:986EH         LINE#         294
  C:9874H         LINE#         295
  C:9882H         LINE#         296
  C:9885H         LINE#         297
  C:988EH         LINE#         298
  C:989CH         LINE#         300
  C:98A1H         LINE#         301
  C:98A1H         LINE#         302
  C:98B2H         LINE#         303
  C:98E5H         LINE#         304
  C:98EBH         LINE#         305
  C:98F9H         LINE#         306
  C:98FCH         LINE#         307
  C:9902H         LINE#         308
  C:9910H         LINE#         309
  C:9916H         LINE#         310
  C:9921H         LINE#         311
  C:9924H         LINE#         312
  -------         ENDPROC       _HY
  -------         PROC          _DAOXU
  D:0007H         SYMBOL        x
  -------         DO            
  D:0006H         SYMBOL        k
  D:0005H         SYMBOL        i
  -------         ENDDO         
  C:C96DH         LINE#         314
  C:C96DH         LINE#         315
  C:C96DH         LINE#         316
  C:C96FH         LINE#         318
  C:C970H         LINE#         319
  C:C970H         LINE#         320
  C:C982H         LINE#         321
  C:C98FH         LINE#         322
  C:C994H         LINE#         323
  C:C996H         LINE#         324
  -------         ENDPROC       _DAOXU
  -------         PROC          _FUN1
  X:02A2H         SYMBOL        a
  X:02A5H         SYMBOL        d
  X:02A6H         SYMBOL        b
  X:02A7H         SYMBOL        c
  X:02A8H         SYMBOL        e
  -------         DO            
  X:02A9H         SYMBOL        i
  -------         ENDDO         
  C:B297H         LINE#         326
  C:B2A5H         LINE#         327
  C:B2A5H         LINE#         329
  C:B2B6H         LINE#         330
  C:B2B6H         LINE#         331
  C:B2D5H         LINE#         332
BL51 BANKED LINKER/LOCATER V6.22.2.0                                                  06/01/2023  21:05:43  PAGE 29


  C:B2DCH         LINE#         333
  C:B2E2H         LINE#         334
  C:B301H         LINE#         335
  C:B31CH         LINE#         336
  C:B321H         LINE#         337
  C:B321H         LINE#         338
  C:B35FH         LINE#         339
  C:B369H         LINE#         340
  C:B373H         LINE#         341
  -------         ENDPROC       _FUN1
  -------         PROC          _ZIMU
  X:0230H         SYMBOL        x
  X:0233H         SYMBOL        n
  X:0234H         SYMBOL        v
  X:0235H         SYMBOL        num
  -------         DO            
  X:0237H         SYMBOL        i
  X:0238H         SYMBOL        j
  X:0239H         SYMBOL        k
  X:023AH         SYMBOL        a
  X:027AH         SYMBOL        temp0
  X:0282H         SYMBOL        temp1
  X:028AH         SYMBOL        temp2
  X:0292H         SYMBOL        temp3
  X:029AH         SYMBOL        temp
  -------         ENDDO         
  C:6DEFH         LINE#         344
  C:6DFDH         LINE#         345
  C:6DFDH         LINE#         347
  C:6E10H         LINE#         348
  C:6E21H         LINE#         349
  C:6E21H         LINE#         350
  C:6E32H         LINE#         351
  C:6E3EH         LINE#         352
  C:6E4AH         LINE#         353
  C:6E56H         LINE#         354
  C:6E5EH         LINE#         355
  C:6E6FH         LINE#         356
  C:6E89H         LINE#         357
  C:6E89H         LINE#         358
  C:6E99H         LINE#         359
  C:6EF0H         LINE#         360
  C:6EF5H         LINE#         361
  C:6EF5H         LINE#         362
  C:6F09H         LINE#         363
  C:6F09H         LINE#         364
  C:6F43H         LINE#         365
  C:6F70H         LINE#         366
  C:6F9DH         LINE#         367
  C:6FCBH         LINE#         368
  C:6FD9H         LINE#         369
  C:704CH         LINE#         370
  C:7059H         LINE#         371
  C:705FH         LINE#         372
  C:7068H         LINE#         373
  C:706EH         LINE#         374
  C:707CH         LINE#         375
BL51 BANKED LINKER/LOCATER V6.22.2.0                                                  06/01/2023  21:05:43  PAGE 30


  C:707FH         LINE#         376
  C:7090H         LINE#         377
  C:7099H         LINE#         378
  C:70A7H         LINE#         379
  -------         ENDPROC       _ZIMU
  C:4BD8H         SYMBOL        L?2716
  C:4BDCH         SYMBOL        L?2717
  C:4BDEH         SYMBOL        L?2718
  -------         PROC          L?2715
  -------         ENDPROC       L?2715
  C:4BD8H         SYMBOL        L?2716
  C:4BDCH         SYMBOL        L?2717
  C:4BDEH         SYMBOL        L?2718
  -------         PROC          _MOVE
  X:0279H         SYMBOL        a
  D:0005H         SYMBOL        kind
  X:027DH         SYMBOL        direction
  X:027EH         SYMBOL        length
  -------         DO            
  X:027FH         SYMBOL        i
  X:0280H         SYMBOL        j
  -------         ENDDO         
  C:4BE8H         LINE#         380
  C:4BF3H         LINE#         382
  C:4BF3H         LINE#         384
  C:4BF9H         LINE#         385
  C:4BF9H         LINE#         386
  C:4C00H         LINE#         387
  C:4C14H         LINE#         388
  C:4C48H         LINE#         390
  C:4C5CH         LINE#         391
  C:4C90H         LINE#         392
  C:4C90H         LINE#         393
  C:4C98H         LINE#         394
  C:4C98H         LINE#         395
  C:4CA3H         LINE#         396
  C:4CA7H         LINE#         397
  C:4CA7H         LINE#         398
  C:4CC0H         LINE#         399
  C:4D3BH         LINE#         400
  C:4D53H         LINE#         401
  C:4D8BH         LINE#         402
  C:4D9AH         LINE#         404
  C:4D9FH         LINE#         405
  C:4D9FH         LINE#         406
  C:4DB7H         LINE#         407
  C:4E31H         LINE#         408
  C:4E48H         LINE#         409
  C:4E80H         LINE#         410
  C:4E8FH         LINE#         411
  C:4E8FH         LINE#         413
  C:4E8FH         LINE#         414
  C:4E9AH         LINE#         415
  C:4E9EH         LINE#         416
  C:4E9EH         LINE#         417
  C:4EBAH         LINE#         418
  C:4F39H         LINE#         419
BL51 BANKED LINKER/LOCATER V6.22.2.0                                                  06/01/2023  21:05:43  PAGE 31


  C:4F51H         LINE#         420
  C:4F8CH         LINE#         421
  C:4F9BH         LINE#         423
  C:4FA0H         LINE#         424
  C:4FA0H         LINE#         425
  C:4FBDH         LINE#         426
  C:5039H         LINE#         427
  C:5050H         LINE#         428
  C:508AH         LINE#         429
  C:5098H         LINE#         430
  C:5098H         LINE#         431
  -------         ENDPROC       _MOVE
  -------         PROC          _LEITU
  X:0230H         SYMBOL        b
  X:0233H         SYMBOL        num
  X:0234H         SYMBOL        v
  -------         DO            
  X:0235H         SYMBOL        a
  D:0007H         SYMBOL        p
  X:0275H         SYMBOL        i
  X:0276H         SYMBOL        j
  X:0277H         SYMBOL        k
  X:0278H         SYMBOL        m
  -------         ENDDO         
  C:92DAH         LINE#         433
  C:92E8H         LINE#         434
  C:92E8H         LINE#         435
  C:92FBH         LINE#         437
  C:9318H         LINE#         438
  C:9318H         LINE#         439
  C:931DH         LINE#         440
  C:9322H         LINE#         441
  C:9327H         LINE#         442
  C:9327H         LINE#         443
  C:9389H         LINE#         444
  C:938BH         LINE#         445
  C:938BH         LINE#         446
  C:93AFH         LINE#         447
  C:93B5H         LINE#         448
  C:93C3H         LINE#         449
  C:93C6H         LINE#         450
  C:93CFH         LINE#         451
  C:93CFH         LINE#         452
  C:9402H         LINE#         453
  C:9408H         LINE#         454
  C:9413H         LINE#         455
  C:9416H         LINE#         456
  C:9427H         LINE#         457
  C:9427H         LINE#         458
  C:9439H         LINE#         459
  C:9439H         LINE#         460
  C:9445H         LINE#         461
  C:944BH         LINE#         462
  C:945AH         LINE#         463
  C:945DH         LINE#         464
  C:9465H         LINE#         465
  C:946CH         LINE#         466
BL51 BANKED LINKER/LOCATER V6.22.2.0                                                  06/01/2023  21:05:43  PAGE 32


  C:9475H         LINE#         467
  -------         ENDPROC       _LEITU
  -------         PROC          _WATER1
  X:0230H         SYMBOL        x
  X:0231H         SYMBOL        y
  X:0232H         SYMBOL        v
  -------         DO            
  X:0233H         SYMBOL        a
  X:0273H         SYMBOL        i
  X:0274H         SYMBOL        r
  -------         ENDDO         
  C:8A82H         LINE#         472
  C:8A8DH         LINE#         473
  C:8A8DH         LINE#         474
  C:8AA0H         LINE#         476
  C:8AC6H         LINE#         477
  C:8ACFH         LINE#         478
  C:8ADDH         LINE#         479
  C:8AE0H         LINE#         480
  C:8AE9H         LINE#         481
  C:8AFEH         LINE#         482
  C:8AFEH         LINE#         483
  C:8B39H         LINE#         484
  C:8B59H         LINE#         485
  C:8B5FH         LINE#         486
  C:8B6DH         LINE#         487
  C:8B74H         LINE#         488
  C:8B7DH         LINE#         489
  C:8B86H         LINE#         490
  C:8B8BH         LINE#         491
  C:8B8BH         LINE#         492
  C:8B9CH         LINE#         493
  C:8C17H         LINE#         494
  C:8C1DH         LINE#         495
  C:8C2CH         LINE#         496
  C:8C33H         LINE#         497
  C:8C39H         LINE#         498
  C:8C4AH         LINE#         499
  -------         ENDPROC       _WATER1
  -------         PROC          _WATER2
  X:0230H         SYMBOL        x1
  X:0231H         SYMBOL        y1
  X:0232H         SYMBOL        x2
  X:0233H         SYMBOL        y2
  X:0234H         SYMBOL        v
  -------         DO            
  X:0235H         SYMBOL        a
  X:0275H         SYMBOL        i
  X:0276H         SYMBOL        r
  -------         ENDDO         
  C:70A8H         LINE#         500
  C:70B3H         LINE#         501
  C:70B3H         LINE#         502
  C:70C6H         LINE#         504
  C:70ECH         LINE#         505
  C:70F5H         LINE#         506
  C:7103H         LINE#         507
BL51 BANKED LINKER/LOCATER V6.22.2.0                                                  06/01/2023  21:05:43  PAGE 33


  C:7106H         LINE#         508
  C:710FH         LINE#         509
  C:7115H         LINE#         510
  C:7115H         LINE#         511
  C:7128H         LINE#         512
  C:712FH         LINE#         513
  C:712FH         LINE#         514
  C:7155H         LINE#         515
  C:7155H         LINE#         516
  C:715BH         LINE#         517
  C:7169H         LINE#         518
  C:7170H         LINE#         519
  C:7179H         LINE#         520
  C:7187H         LINE#         521
  C:719BH         LINE#         522
  C:719BH         LINE#         523
  C:71A3H         LINE#         524
  C:71B9H         LINE#         526
  C:71CAH         LINE#         527
  C:7245H         LINE#         528
  C:7253H         LINE#         529
  C:7267H         LINE#         530
  C:72F0H         LINE#         531
  C:72F7H         LINE#         532
  C:7326H         LINE#         533
  C:732CH         LINE#         534
  C:733AH         LINE#         535
  C:7341H         LINE#         536
  C:7347H         LINE#         537
  C:7350H         LINE#         538
  -------         ENDPROC       _WATER2
  -------         PROC          _WATER3
  X:0230H         SYMBOL        x1
  X:0231H         SYMBOL        y1
  X:0232H         SYMBOL        x2
  X:0233H         SYMBOL        y2
  X:0234H         SYMBOL        x3
  X:0235H         SYMBOL        y3
  X:0236H         SYMBOL        v
  -------         DO            
  X:0237H         SYMBOL        a
  X:0277H         SYMBOL        i
  X:0278H         SYMBOL        r
  -------         ENDDO         
  C:59CFH         LINE#         539
  C:59DAH         LINE#         540
  C:59DAH         LINE#         541
  C:59EDH         LINE#         543
  C:5A13H         LINE#         544
  C:5A1CH         LINE#         545
  C:5A2AH         LINE#         546
  C:5A31H         LINE#         547
  C:5A3AH         LINE#         548
  C:5A40H         LINE#         549
  C:5A40H         LINE#         550
  C:5A53H         LINE#         551
  C:5A5BH         LINE#         552
BL51 BANKED LINKER/LOCATER V6.22.2.0                                                  06/01/2023  21:05:43  PAGE 34


  C:5A81H         LINE#         553
  C:5A85H         LINE#         554
  C:5AABH         LINE#         555
  C:5AB1H         LINE#         556
  C:5ABFH         LINE#         557
  C:5AC6H         LINE#         558
  C:5ACFH         LINE#         559
  C:5AE0H         LINE#         560
  C:5AF4H         LINE#         561
  C:5AF4H         LINE#         562
  C:5AFCH         LINE#         563
  C:5B0FH         LINE#         564
  C:5B29H         LINE#         565
  C:5B3AH         LINE#         566
  C:5BB5H         LINE#         567
  C:5BCFH         LINE#         568
  C:5BE3H         LINE#         569
  C:5C6CH         LINE#         570
  C:5C7AH         LINE#         571
  C:5C8EH         LINE#         572
  C:5D17H         LINE#         573
  C:5D1FH         LINE#         574
  C:5D4EH         LINE#         575
  C:5D52H         LINE#         576
  C:5D81H         LINE#         577
  C:5D87H         LINE#         578
  C:5D95H         LINE#         579
  C:5D9CH         LINE#         580
  C:5DA2H         LINE#         581
  C:5DABH         LINE#         582
  -------         ENDPROC       _WATER3
  -------         PROC          _PRINT
  X:0231H         SYMBOL        a
  X:0234H         SYMBOL        m
  -------         DO            
  X:0235H         SYMBOL        p
  X:0236H         SYMBOL        i
  X:0237H         SYMBOL        j
  X:0238H         SYMBOL        k
  X:0239H         SYMBOL        b
  -------         ENDDO         
  C:7351H         LINE#         584
  C:735FH         LINE#         585
  C:735FH         LINE#         588
  C:7372H         LINE#         589
  C:7383H         LINE#         590
  C:7383H         LINE#         591
  C:7395H         LINE#         592
  C:739DH         LINE#         593
  C:73A2H         LINE#         594
  C:73A2H         LINE#         595
  C:73B6H         LINE#         596
  C:73B6H         LINE#         597
  C:73E1H         LINE#         598
  C:73E6H         LINE#         599
  C:73E6H         LINE#         600
  C:73FBH         LINE#         601
BL51 BANKED LINKER/LOCATER V6.22.2.0                                                  06/01/2023  21:05:43  PAGE 35


  C:73FBH         LINE#         602
  C:7407H         LINE#         603
  C:7407H         LINE#         605
  C:7448H         LINE#         606
  C:7492H         LINE#         607
  C:749BH         LINE#         608
  C:74A1H         LINE#         609
  C:74ACH         LINE#         610
  C:74AFH         LINE#         611
  C:74B8H         LINE#         612
  C:74D5H         LINE#         613
  C:74F9H         LINE#         614
  C:7502H         LINE#         615
  C:7508H         LINE#         616
  C:7513H         LINE#         617
  C:7516H         LINE#         618
  C:7516H         LINE#         619
  C:7543H         LINE#         620
  C:754CH         LINE#         621
  C:755DH         LINE#         622
  C:7566H         LINE#         623
  C:756CH         LINE#         624
  C:7577H         LINE#         625
  C:757AH         LINE#         626
  C:757FH         LINE#         627
  C:7585H         LINE#         628
  C:7585H         LINE#         629
  C:7597H         LINE#         630
  C:7597H         LINE#         631
  C:75B4H         LINE#         633
  C:75BCH         LINE#         634
  C:75C2H         LINE#         635
  C:75C8H         LINE#         636
  C:75D3H         LINE#         637
  C:75D6H         LINE#         638
  C:75E4H         LINE#         639
  C:75E6H         LINE#         640
  -------         ENDPROC       _PRINT
  -------         PROC          _LINK_JB0
  X:0230H         SYMBOL        v
  -------         DO            
  X:0231H         SYMBOL        a
  X:0271H         SYMBOL        i
  -------         ENDDO         
  C:C1AAH         LINE#         642
  C:C1AFH         LINE#         643
  C:C1AFH         LINE#         644
  C:C1C2H         LINE#         646
  C:C1D3H         LINE#         647
  C:C1D3H         LINE#         648
  C:C1E5H         LINE#         649
  C:C1EBH         LINE#         650
  C:C1F9H         LINE#         651
  C:C1FCH         LINE#         652
  C:C202H         LINE#         653
  C:C20AH         LINE#         654
  -------         ENDPROC       _LINK_JB0
BL51 BANKED LINKER/LOCATER V6.22.2.0                                                  06/01/2023  21:05:43  PAGE 36


  -------         PROC          _JB0
  X:0230H         SYMBOL        num
  X:0231H         SYMBOL        v
  -------         DO            
  X:0232H         SYMBOL        i
  X:0233H         SYMBOL        k
  X:0234H         SYMBOL        c
  -------         ENDDO         
  C:7B00H         LINE#         655
  C:7B08H         LINE#         656
  C:7B08H         LINE#         658
  C:7B1BH         LINE#         659
  C:7B2CH         LINE#         660
  C:7B46H         LINE#         661
  C:7B4FH         LINE#         662
  C:7B5DH         LINE#         663
  C:7B60H         LINE#         664
  C:7B69H         LINE#         665
  C:7B76H         LINE#         666
  C:7B87H         LINE#         667
  C:7B87H         LINE#         668
  C:7B8FH         LINE#         669
  C:7BA1H         LINE#         670
  C:7BA1H         LINE#         671
  C:7BDAH         LINE#         672
  C:7C00H         LINE#         673
  C:7C08H         LINE#         674
  C:7C14H         LINE#         675
  C:7C26H         LINE#         676
  C:7C26H         LINE#         677
  C:7C47H         LINE#         678
  C:7C64H         LINE#         679
  C:7C6CH         LINE#         680
  C:7C74H         LINE#         681
  C:7C88H         LINE#         682
  C:7C88H         LINE#         683
  C:7CA8H         LINE#         684
  C:7CDBH         LINE#         685
  C:7CE3H         LINE#         686
  C:7CEEH         LINE#         687
  C:7CFDH         LINE#         688
  C:7CFDH         LINE#         689
  C:7D2AH         LINE#         690
  C:7D39H         LINE#         691
  C:7D41H         LINE#         692
  C:7D47H         LINE#         693
  C:7D50H         LINE#         694
  C:7D5EH         LINE#         695
  C:7D61H         LINE#         696
  C:7D6AH         LINE#         697
  C:7D6CH         LINE#         698
  -------         ENDPROC       _JB0
  -------         PROC          _YINCHU
  X:0230H         SYMBOL        table
  X:0233H         SYMBOL        n
  X:0234H         SYMBOL        v
  -------         DO            
BL51 BANKED LINKER/LOCATER V6.22.2.0                                                  06/01/2023  21:05:43  PAGE 37


  X:0235H         SYMBOL        i
  X:0236H         SYMBOL        j
  X:0237H         SYMBOL        k
  X:0238H         SYMBOL        a
  X:0278H         SYMBOL        p
  -------         ENDDO         
  C:A191H         LINE#         699
  C:A19FH         LINE#         700
  C:A19FH         LINE#         705
  C:A1B2H         LINE#         706
  C:A1CFH         LINE#         707
  C:A1CFH         LINE#         708
  C:A1D4H         LINE#         709
  C:A1D4H         LINE#         710
  C:A1DAH         LINE#         711
  C:A1EBH         LINE#         712
  C:A1EBH         LINE#         713
  C:A257H         LINE#         714
  C:A25FH         LINE#         715
  C:A265H         LINE#         716
  C:A26BH         LINE#         717
  C:A279H         LINE#         718
  C:A27CH         LINE#         719
  C:A28DH         LINE#         720
  C:A293H         LINE#         721
  C:A299H         LINE#         722
  C:A2C1H         LINE#         723
  C:A2C4H         LINE#         724
  C:A2CDH         LINE#         726
  -------         ENDPROC       _YINCHU
  -------         PROC          _LINK
  X:0230H         SYMBOL        v
  -------         DO            
  X:0231H         SYMBOL        i
  X:0232H         SYMBOL        j
  D:0007H         SYMBOL        k
  X:0233H         SYMBOL        a
  -------         ENDDO         
  C:913BH         LINE#         728
  C:9140H         LINE#         729
  C:9140H         LINE#         734
  C:9153H         LINE#         735
  C:9164H         LINE#         736
  C:917EH         LINE#         737
  C:9187H         LINE#         738
  C:9190H         LINE#         739
  C:919BH         LINE#         740
  C:919EH         LINE#         741
  C:91A3H         LINE#         742
  C:91A3H         LINE#         743
  C:91B4H         LINE#         744
  C:91B4H         LINE#         745
  C:91C0H         LINE#         746
  C:91EAH         LINE#         747
  C:9220H         LINE#         748
  C:9228H         LINE#         749
  C:922EH         LINE#         750
BL51 BANKED LINKER/LOCATER V6.22.2.0                                                  06/01/2023  21:05:43  PAGE 38


  C:9237H         LINE#         751
  C:9245H         LINE#         752
  C:9248H         LINE#         753
  C:9259H         LINE#         754
  C:925EH         LINE#         755
  C:925EH         LINE#         756
  C:9263H         LINE#         757
  C:9265H         LINE#         758
  C:92B1H         LINE#         759
  C:92B7H         LINE#         760
  C:92BDH         LINE#         761
  C:92C8H         LINE#         762
  C:92CBH         LINE#         763
  C:92D9H         LINE#         764
  -------         ENDPROC       _LINK
  -------         PROC          _XUANZHUANTIAO
  X:0230H         SYMBOL        kind
  X:0231H         SYMBOL        num
  X:0232H         SYMBOL        v
  -------         DO            
  X:0233H         SYMBOL        a
  X:0273H         SYMBOL        i
  D:0001H         SYMBOL        j
  D:0005H         SYMBOL        k
  -------         ENDDO         
  C:AD62H         LINE#         765
  C:AD6DH         LINE#         766
  C:AD6DH         LINE#         767
  C:AD80H         LINE#         769
  C:AD8DH         LINE#         770
  C:AD8DH         LINE#         771
  C:AD9DH         LINE#         772
  C:AD9DH         LINE#         773
  C:AD9FH         LINE#         774
  C:AD9FH         LINE#         775
  C:ADA1H         LINE#         776
  C:ADA1H         LINE#         777
  C:ADC6H         LINE#         778
  C:ADF9H         LINE#         780
  C:AE41H         LINE#         781
  C:AE4AH         LINE#         782
  C:AE53H         LINE#         783
  C:AE59H         LINE#         784
  C:AE62H         LINE#         785
  C:AE70H         LINE#         786
  C:AE73H         LINE#         787
  C:AE7CH         LINE#         788
  C:AE7CH         LINE#         789
  -------         ENDPROC       _XUANZHUANTIAO
  -------         PROC          _XUANZHUANTIAO2
  X:0230H         SYMBOL        num
  X:0231H         SYMBOL        v
  -------         DO            
  X:0232H         SYMBOL        a
  X:0272H         SYMBOL        i
  D:0005H         SYMBOL        j
  D:0004H         SYMBOL        k
BL51 BANKED LINKER/LOCATER V6.22.2.0                                                  06/01/2023  21:05:43  PAGE 39


  -------         ENDDO         
  C:B891H         LINE#         790
  C:B899H         LINE#         791
  C:B899H         LINE#         792
  C:B8ACH         LINE#         794
  C:B8B9H         LINE#         795
  C:B8C9H         LINE#         796
  C:B8C9H         LINE#         797
  C:B8CBH         LINE#         798
  C:B8CDH         LINE#         799
  C:B91FH         LINE#         800
  C:B925H         LINE#         801
  C:B92BH         LINE#         802
  C:B939H         LINE#         803
  C:B93CH         LINE#         804
  C:B945H         LINE#         805
  -------         ENDPROC       _XUANZHUANTIAO2
  -------         PROC          _QUMIANXUANZHUAN
  X:0230H         SYMBOL        kind
  X:0231H         SYMBOL        num
  X:0232H         SYMBOL        v
  -------         DO            
  X:0233H         SYMBOL        a
  X:0273H         SYMBOL        i
  X:0274H         SYMBOL        j
  X:0275H         SYMBOL        k
  -------         ENDDO         
  C:34BCH         LINE#         807
  C:34C7H         LINE#         808
  C:34C7H         LINE#         809
  C:34DAH         LINE#         811
  C:34DFH         LINE#         812
  C:34E4H         LINE#         813
  C:353BH         LINE#         814
  C:3544H         LINE#         815
  C:354DH         LINE#         816
  C:3550H         LINE#         817
  C:3553H         LINE#         818
  C:355EH         LINE#         819
  C:355EH         LINE#         820
  C:3563H         LINE#         821
  C:3563H         LINE#         822
  C:357DH         LINE#         823
  C:3582H         LINE#         824
  C:35E5H         LINE#         825
  C:35EBH         LINE#         826
  C:35F4H         LINE#         827
  C:35F7H         LINE#         828
  C:35FAH         LINE#         829
  C:360BH         LINE#         830
  C:3611H         LINE#         831
  C:3611H         LINE#         832
  C:3614H         LINE#         833
  C:3619H         LINE#         834
  C:3659H         LINE#         835
  C:3662H         LINE#         836
  C:366BH         LINE#         837
BL51 BANKED LINKER/LOCATER V6.22.2.0                                                  06/01/2023  21:05:43  PAGE 40


  C:366EH         LINE#         838
  C:3671H         LINE#         839
  C:3682H         LINE#         840
  C:3682H         LINE#         842
  C:3682H         LINE#         843
  C:3688H         LINE#         844
  C:3688H         LINE#         845
  C:36A2H         LINE#         846
  C:36A7H         LINE#         847
  C:3713H         LINE#         848
  C:3719H         LINE#         849
  C:3722H         LINE#         850
  C:3725H         LINE#         851
  C:3728H         LINE#         852
  C:3739H         LINE#         853
  C:373FH         LINE#         854
  C:373FH         LINE#         855
  C:3742H         LINE#         856
  C:3747H         LINE#         857
  C:3787H         LINE#         858
  C:378DH         LINE#         859
  C:3796H         LINE#         860
  C:3799H         LINE#         861
  C:379CH         LINE#         862
  C:37AAH         LINE#         863
  C:37AAH         LINE#         865
  C:37B7H         LINE#         866
  C:37B7H         LINE#         867
  C:37BFH         LINE#         868
  C:37CEH         LINE#         869
  C:37CEH         LINE#         870
  C:37D1H         LINE#         871
  C:37D6H         LINE#         872
  C:3816H         LINE#         873
  C:381CH         LINE#         874
  C:3825H         LINE#         875
  C:3828H         LINE#         876
  C:382BH         LINE#         877
  C:3834H         LINE#         879
  C:3848H         LINE#         880
  C:3848H         LINE#         881
  C:384BH         LINE#         882
  C:3850H         LINE#         883
  C:3890H         LINE#         884
  C:3899H         LINE#         885
  C:38A2H         LINE#         886
  C:38A5H         LINE#         887
  C:38A8H         LINE#         888
  C:38B1H         LINE#         889
  C:38B1H         LINE#         890
  C:38BCH         LINE#         891
  C:38C0H         LINE#         892
  C:38C0H         LINE#         893
  C:38DEH         LINE#         894
  C:38DEH         LINE#         895
  C:38E9H         LINE#         896
  C:38EEH         LINE#         897
BL51 BANKED LINKER/LOCATER V6.22.2.0                                                  06/01/2023  21:05:43  PAGE 41


  C:394FH         LINE#         899
  C:3954H         LINE#         900
  C:39A1H         LINE#         901
  C:39AAH         LINE#         902
  C:39B3H         LINE#         903
  C:39BCH         LINE#         904
  C:39BFH         LINE#         905
  C:39C2H         LINE#         906
  C:39D4H         LINE#         908
  C:39DAH         LINE#         909
  C:39DAH         LINE#         910
  C:39F8H         LINE#         911
  C:39F8H         LINE#         912
  C:3A03H         LINE#         913
  C:3A08H         LINE#         914
  C:3A69H         LINE#         916
  C:3A6EH         LINE#         917
  C:3ABBH         LINE#         918
  C:3AC4H         LINE#         919
  C:3ACAH         LINE#         920
  C:3AD0H         LINE#         921
  C:3AD3H         LINE#         922
  C:3AD6H         LINE#         923
  C:3AE7H         LINE#         924
  -------         ENDPROC       _QUMIANXUANZHUAN
  -------         PROC          _QUMIANXUANZHUAN2
  X:0230H         SYMBOL        num
  X:0231H         SYMBOL        v
  -------         DO            
  X:0232H         SYMBOL        a
  X:0272H         SYMBOL        i
  X:0273H         SYMBOL        j
  X:0274H         SYMBOL        k
  -------         ENDDO         
  C:615CH         LINE#         926
  C:6164H         LINE#         927
  C:6164H         LINE#         928
  C:6177H         LINE#         930
  C:617CH         LINE#         931
  C:6181H         LINE#         932
  C:61D8H         LINE#         933
  C:61E1H         LINE#         934
  C:61EAH         LINE#         935
  C:61F8H         LINE#         936
  C:61FBH         LINE#         937
  C:6201H         LINE#         938
  C:6201H         LINE#         939
  C:621BH         LINE#         940
  C:6220H         LINE#         941
  C:628CH         LINE#         942
  C:6292H         LINE#         943
  C:629BH         LINE#         944
  C:62A9H         LINE#         945
  C:62ACH         LINE#         946
  C:62BDH         LINE#         947
  C:62CAH         LINE#         948
  C:62CAH         LINE#         949
BL51 BANKED LINKER/LOCATER V6.22.2.0                                                  06/01/2023  21:05:43  PAGE 42


  C:62D0H         LINE#         950
  C:62D0H         LINE#         951
  C:62D7H         LINE#         952
  C:62F4H         LINE#         953
  C:62F4H         LINE#         954
  C:6308H         LINE#         955
  C:6308H         LINE#         956
  C:6327H         LINE#         957
  C:637FH         LINE#         959
  C:63A1H         LINE#         960
  C:63AAH         LINE#         961
  C:63B3H         LINE#         962
  C:63B9H         LINE#         963
  C:63C2H         LINE#         964
  C:63D0H         LINE#         965
  C:63D3H         LINE#         966
  C:63E4H         LINE#         967
  C:63F8H         LINE#         968
  C:63F8H         LINE#         969
  C:6401H         LINE#         970
  C:641EH         LINE#         971
  C:641EH         LINE#         972
  C:642FH         LINE#         973
  C:6497H         LINE#         974
  C:64A0H         LINE#         975
  C:64A9H         LINE#         976
  C:64AFH         LINE#         977
  C:64BDH         LINE#         978
  C:64C0H         LINE#         979
  C:64C9H         LINE#         980
  C:64C9H         LINE#         981
  -------         ENDPROC       _QUMIANXUANZHUAN2
  C:BE1FH         SYMBOL        L?2724
  -------         PROC          L?2723
  -------         ENDPROC       L?2723
  C:BE1FH         SYMBOL        L?2724
  -------         PROC          _DONGHUA
  X:0231H         SYMBOL        tab
  X:0234H         SYMBOL        num
  X:0235H         SYMBOL        n
  X:0236H         SYMBOL        v
  -------         DO            
  X:0237H         SYMBOL        i
  -------         ENDDO         
  C:BE24H         LINE#         983
  C:BE32H         LINE#         984
  C:BE32H         LINE#         986
  C:BE3CH         LINE#         987
  C:BE3CH         LINE#         988
  C:BE59H         LINE#         989
  C:BE59H         LINE#         990
  C:BE5FH         LINE#         991
  C:BE65H         LINE#         992
  C:BE89H         LINE#         993
  C:BE8CH         LINE#         994
  C:BE94H         LINE#         995
  C:BE94H         LINE#         996
BL51 BANKED LINKER/LOCATER V6.22.2.0                                                  06/01/2023  21:05:43  PAGE 43


  -------         ENDPROC       _DONGHUA
  -------         PROC          XZCUBE
  -------         DO            
  X:0230H         SYMBOL        i
  -------         ENDDO         
  C:A8DBH         LINE#         997
  C:A8DBH         LINE#         998
  C:A8DBH         LINE#         1000
  C:A8E0H         LINE#         1001
  C:A8F1H         LINE#         1002
  C:A8F1H         LINE#         1003
  C:A8FFH         LINE#         1004
  C:A90EH         LINE#         1005
  C:A928H         LINE#         1006
  C:A92AH         LINE#         1007
  C:A92AH         LINE#         1008
  C:A939H         LINE#         1009
  C:A95AH         LINE#         1010
  C:A95DH         LINE#         1011
  C:A966H         LINE#         1012
  C:A974H         LINE#         1013
  C:A985H         LINE#         1014
  C:A985H         LINE#         1015
  C:A993H         LINE#         1016
  C:A99FH         LINE#         1017
  C:A9B9H         LINE#         1018
  C:A9BBH         LINE#         1019
  C:A9BBH         LINE#         1020
  C:A9C7H         LINE#         1021
  C:A9E8H         LINE#         1022
  C:A9EBH         LINE#         1023
  C:A9F3H         LINE#         1024
  C:AA01H         LINE#         1025
  -------         ENDPROC       XZCUBE
  -------         PROC          L?2740
  -------         ENDPROC       L?2740
  -------         PROC          _PRODUCE_CUBE
  X:0276H         SYMBOL        a
  X:0279H         SYMBOL        n
  -------         DO            
  X:027AH         SYMBOL        i
  X:027BH         SYMBOL        j
  -------         ENDDO         
  C:B649H         LINE#         1027
  C:B657H         LINE#         1028
  C:B657H         LINE#         1030
  C:B65AH         LINE#         1031
  C:B66EH         LINE#         1032
  C:B66EH         LINE#         1033
  C:B68BH         LINE#         1034
  C:B6CDH         LINE#         1036
  C:B703H         LINE#         1037
  C:B71AH         LINE#         1038
  -------         ENDPROC       _PRODUCE_CUBE
  -------         PROC          LINK00
  -------         DO            
  X:0230H         SYMBOL        a
BL51 BANKED LINKER/LOCATER V6.22.2.0                                                  06/01/2023  21:05:43  PAGE 44


  X:0270H         SYMBOL        i
  -------         ENDDO         
  C:B71BH         LINE#         1039
  C:B71BH         LINE#         1040
  C:B71BH         LINE#         1041
  C:B72EH         LINE#         1043
  C:B740H         LINE#         1044
  C:B740H         LINE#         1045
  C:B74FH         LINE#         1046
  C:B76CH         LINE#         1047
  C:B76FH         LINE#         1048
  C:B777H         LINE#         1049
  C:B77CH         LINE#         1050
  C:B78EH         LINE#         1051
  C:B7A1H         LINE#         1052
  C:B7ADH         LINE#         1053
  C:B7B8H         LINE#         1054
  C:B7BBH         LINE#         1055
  C:B7C0H         LINE#         1056
  C:B7CCH         LINE#         1057
  C:B7D7H         LINE#         1058
  C:B7DAH         LINE#         1059
  -------         ENDPROC       LINK00
  -------         PROC          _SHENSUO
  X:0230H         SYMBOL        v
  -------         DO            
  X:0231H         SYMBOL        i
  X:0232H         SYMBOL        j
  X:0233H         SYMBOL        a
  -------         ENDDO         
  C:7FD6H         LINE#         1061
  C:7FDBH         LINE#         1062
  C:7FDBH         LINE#         1064
  C:7FEEH         LINE#         1065
  C:7FFFH         LINE#         1066
  C:8019H         LINE#         1067
  C:801EH         LINE#         1068
  C:801EH         LINE#         1069
  C:8031H         LINE#         1070
  C:8037H         LINE#         1071
  C:8045H         LINE#         1072
  C:8048H         LINE#         1073
  C:8056H         LINE#         1074
  C:805BH         LINE#         1075
  C:805BH         LINE#         1076
  C:806EH         LINE#         1077
  C:807FH         LINE#         1078
  C:809AH         LINE#         1079
  C:80A9H         LINE#         1080
  C:80B7H         LINE#         1081
  C:80BAH         LINE#         1082
  C:80C8H         LINE#         1083
  C:80CDH         LINE#         1084
  C:80CDH         LINE#         1085
  C:80E0H         LINE#         1086
  C:80E6H         LINE#         1087
  C:80F4H         LINE#         1088
BL51 BANKED LINKER/LOCATER V6.22.2.0                                                  06/01/2023  21:05:43  PAGE 45


  C:80F7H         LINE#         1089
  C:8105H         LINE#         1090
  C:810AH         LINE#         1091
  C:810AH         LINE#         1092
  C:8113H         LINE#         1093
  C:8124H         LINE#         1094
  C:813EH         LINE#         1095
  C:814DH         LINE#         1096
  C:815BH         LINE#         1097
  C:815EH         LINE#         1098
  C:816CH         LINE#         1099
  C:8172H         LINE#         1100
  C:8172H         LINE#         1101
  C:8183H         LINE#         1102
  C:81ABH         LINE#         1103
  C:81B1H         LINE#         1104
  C:81BFH         LINE#         1105
  C:81C2H         LINE#         1106
  C:81D0H         LINE#         1107
  C:81D6H         LINE#         1108
  C:81D6H         LINE#         1109
  C:81E7H         LINE#         1110
  C:8210H         LINE#         1111
  C:821CH         LINE#         1112
  C:822AH         LINE#         1113
  C:822DH         LINE#         1114
  C:823BH         LINE#         1115
  -------         ENDPROC       _SHENSUO
  -------         PROC          _PRODUCE_EMPTY
  X:0276H         SYMBOL        a
  X:0279H         SYMBOL        n
  -------         DO            
  X:027AH         SYMBOL        j
  X:027BH         SYMBOL        p
  -------         ENDDO         
  C:8898H         LINE#         1117
  C:88A6H         LINE#         1118
  C:88A6H         LINE#         1121
  C:88B5H         LINE#         1122
  C:88D4H         LINE#         1123
  C:88EDH         LINE#         1125
  C:8930H         LINE#         1126
  C:8950H         LINE#         1127
  C:8954H         LINE#         1128
  C:897DH         LINE#         1129
  C:8998H         LINE#         1130
  C:8998H         LINE#         1131
  C:89ACH         LINE#         1133
  C:89DAH         LINE#         1134
  C:8A17H         LINE#         1136
  C:8A3DH         LINE#         1137
  C:8A78H         LINE#         1138
  C:8A81H         LINE#         1139
  -------         ENDPROC       _PRODUCE_EMPTY
  -------         PROC          _CUBE
  X:0232H         SYMBOL        empty
  X:0233H         SYMBOL        kind
BL51 BANKED LINKER/LOCATER V6.22.2.0                                                  06/01/2023  21:05:43  PAGE 46


  X:0234H         SYMBOL        v
  -------         DO            
  X:0235H         SYMBOL        a
  X:0275H         SYMBOL        i
  -------         ENDDO         
  C:8DF6H         LINE#         1140
  C:8E01H         LINE#         1141
  C:8E01H         LINE#         1142
  C:8E14H         LINE#         1144
  C:8E29H         LINE#         1145
  C:8E29H         LINE#         1146
  C:8E35H         LINE#         1147
  C:8E3AH         LINE#         1149
  C:8E42H         LINE#         1150
  C:8E49H         LINE#         1151
  C:8E49H         LINE#         1152
  C:8E4CH         LINE#         1153
  C:8E69H         LINE#         1154
  C:8E7AH         LINE#         1155
  C:8E7AH         LINE#         1156
  C:8E8EH         LINE#         1157
  C:8E97H         LINE#         1158
  C:8E99H         LINE#         1160
  C:8EAEH         LINE#         1161
  C:8EBDH         LINE#         1162
  C:8ECBH         LINE#         1163
  C:8ECEH         LINE#         1164
  C:8ED7H         LINE#         1165
  C:8EECH         LINE#         1166
  C:8EECH         LINE#         1167
  C:8EF8H         LINE#         1168
  C:8EFDH         LINE#         1170
  C:8F05H         LINE#         1171
  C:8F0BH         LINE#         1172
  C:8F0BH         LINE#         1173
  C:8F28H         LINE#         1174
  C:8F28H         LINE#         1175
  C:8F2AH         LINE#         1176
  C:8F31H         LINE#         1177
  C:8F4EH         LINE#         1178
  C:8F56H         LINE#         1179
  C:8F56H         LINE#         1181
  C:8F74H         LINE#         1182
  C:8F80H         LINE#         1183
  C:8F8EH         LINE#         1184
  C:8F91H         LINE#         1185
  C:8F9AH         LINE#         1186
  -------         ENDPROC       _CUBE
  -------         PROC          _SHANDIAN
  X:0231H         SYMBOL        v
  -------         DO            
  X:0232H         SYMBOL        i
  D:0005H         SYMBOL        j
  X:0233H         SYMBOL        a
  -------         ENDDO         
  C:B19DH         LINE#         1189
  C:B1A2H         LINE#         1190
BL51 BANKED LINKER/LOCATER V6.22.2.0                                                  06/01/2023  21:05:43  PAGE 47


  C:B1A2H         LINE#         1193
  C:B1A5H         LINE#         1194
  C:B1D7H         LINE#         1195
  C:B1E8H         LINE#         1196
  C:B1EEH         LINE#         1197
  C:B216H         LINE#         1198
  C:B219H         LINE#         1199
  C:B21EH         LINE#         1200
  C:B21EH         LINE#         1201
  C:B220H         LINE#         1202
  C:B271H         LINE#         1203
  C:B277H         LINE#         1204
  C:B285H         LINE#         1205
  C:B288H         LINE#         1206
  C:B296H         LINE#         1207
  -------         ENDPROC       _SHANDIAN
  -------         PROC          _SZFC0
  X:0230H         SYMBOL        v
  -------         DO            
  X:0231H         SYMBOL        i
  X:0232H         SYMBOL        j
  X:0233H         SYMBOL        a
  -------         ENDDO         
  C:AB27H         LINE#         1209
  C:AB2CH         LINE#         1210
  C:AB2CH         LINE#         1213
  C:AB3BH         LINE#         1214
  C:AB3BH         LINE#         1215
  C:AB4CH         LINE#         1216
  C:AB54H         LINE#         1217
  C:AB67H         LINE#         1218
  C:AB67H         LINE#         1219
  C:AB79H         LINE#         1220
  C:AB79H         LINE#         1221
  C:ABB2H         LINE#         1222
  C:ABDFH         LINE#         1223
  C:ABE7H         LINE#         1224
  C:ABF3H         LINE#         1225
  C:AC01H         LINE#         1226
  C:AC04H         LINE#         1227
  C:AC15H         LINE#         1228
  C:AC15H         LINE#         1229
  C:AC26H         LINE#         1230
  C:AC2EH         LINE#         1231
  C:AC39H         LINE#         1232
  C:AC3CH         LINE#         1233
  C:AC45H         LINE#         1234
  -------         ENDPROC       _SZFC0
  -------         PROC          _RAIN
  X:0230H         SYMBOL        menu
  X:0231H         SYMBOL        num
  X:0232H         SYMBOL        v
  -------         DO            
  X:0233H         SYMBOL        a
  X:0273H         SYMBOL        i
  X:0274H         SYMBOL        j
  -------         ENDDO         
BL51 BANKED LINKER/LOCATER V6.22.2.0                                                  06/01/2023  21:05:43  PAGE 48


  C:6AF2H         LINE#         1236
  C:6AFDH         LINE#         1237
  C:6AFDH         LINE#         1238
  C:6B10H         LINE#         1240
  C:6B19H         LINE#         1241
  C:6B19H         LINE#         1242
  C:6B29H         LINE#         1243
  C:6B4FH         LINE#         1244
  C:6B61H         LINE#         1245
  C:6B6FH         LINE#         1246
  C:6B72H         LINE#         1247
  C:6B78H         LINE#         1248
  C:6B78H         LINE#         1249
  C:6B81H         LINE#         1250
  C:6B86H         LINE#         1251
  C:6BC6H         LINE#         1252
  C:6BCCH         LINE#         1253
  C:6BDAH         LINE#         1254
  C:6BDDH         LINE#         1255
  C:6BEBH         LINE#         1256
  C:6BF8H         LINE#         1257
  C:6BF8H         LINE#         1258
  C:6C08H         LINE#         1259
  C:6C08H         LINE#         1260
  C:6C11H         LINE#         1261
  C:6C16H         LINE#         1262
  C:6C56H         LINE#         1263
  C:6C65H         LINE#         1264
  C:6C73H         LINE#         1265
  C:6C76H         LINE#         1266
  C:6C7FH         LINE#         1267
  C:6C7FH         LINE#         1268
  C:6C7FH         LINE#         1270
  C:6C7FH         LINE#         1271
  C:6C84H         LINE#         1272
  C:6CB6H         LINE#         1273
  C:6CBFH         LINE#         1274
  C:6CCDH         LINE#         1275
  C:6CD0H         LINE#         1276
  C:6CD6H         LINE#         1277
  C:6CD6H         LINE#         1278
  C:6CE9H         LINE#         1279
  C:6CEEH         LINE#         1280
  C:6D2EH         LINE#         1281
  C:6D34H         LINE#         1282
  C:6D42H         LINE#         1283
  C:6D45H         LINE#         1284
  C:6D53H         LINE#         1285
  C:6D60H         LINE#         1286
  C:6D60H         LINE#         1287
  C:6D70H         LINE#         1288
  C:6D70H         LINE#         1289
  C:6D83H         LINE#         1290
  C:6D88H         LINE#         1291
  C:6DC8H         LINE#         1292
  C:6DD4H         LINE#         1293
  C:6DE2H         LINE#         1294
BL51 BANKED LINKER/LOCATER V6.22.2.0                                                  06/01/2023  21:05:43  PAGE 49


  C:6DE5H         LINE#         1295
  C:6DEEH         LINE#         1296
  C:6DEEH         LINE#         1297
  C:6DEEH         LINE#         1298
  -------         ENDPROC       _RAIN
  C:A2CEH         SYMBOL        L?2713
  C:A2D4H         SYMBOL        L?2714
  -------         PROC          L?2712
  -------         ENDPROC       L?2712
  C:A2CEH         SYMBOL        L?2713
  C:A2D4H         SYMBOL        L?2714
  -------         PROC          _BOX_APEAK_XY
  X:023FH         SYMBOL        x1
  X:0240H         SYMBOL        y1
  X:0241H         SYMBOL        z1
  X:0242H         SYMBOL        x2
  X:0243H         SYMBOL        y2
  X:0244H         SYMBOL        z2
  X:0245H         SYMBOL        fill
  X:0246H         SYMBOL        le
  -------         DO            
  X:0247H         SYMBOL        i
  -------         ENDDO         
  C:A2F7H         LINE#         1301
  C:A302H         LINE#         1302
  C:A302H         LINE#         1304
  C:A319H         LINE#         1305
  C:A31FH         LINE#         1306
  C:A31FH         LINE#         1307
  C:A337H         LINE#         1308
  C:A337H         LINE#         1309
  C:A362H         LINE#         1310
  C:A36AH         LINE#         1311
  C:A36AH         LINE#         1313
  C:A36AH         LINE#         1314
  C:A391H         LINE#         1315
  C:A3BCH         LINE#         1316
  C:A3E4H         LINE#         1317
  C:A40AH         LINE#         1318
  C:A40AH         LINE#         1319
  -------         ENDPROC       _BOX_APEAK_XY
  -------         PROC          L?2737
  -------         ENDPROC       L?2737
  -------         PROC          _ROLL_APEAK_YZ
  D:0007H         SYMBOL        n
  X:023AH         SYMBOL        speed
  -------         DO            
  X:023CH         SYMBOL        i
  -------         ENDDO         
  C:9D9DH         LINE#         1320
  C:9DA5H         LINE#         1321
  C:9DA5H         LINE#         1323
  C:9DBCH         LINE#         1324
  C:9DBCH         LINE#         1325
  C:9DBCH         LINE#         1326
  C:9DCEH         LINE#         1327
  C:9DCEH         LINE#         1328
BL51 BANKED LINKER/LOCATER V6.22.2.0                                                  06/01/2023  21:05:43  PAGE 50


  C:9DDEH         LINE#         1329
  C:9DF4H         LINE#         1330
  C:9DFFH         LINE#         1331
  C:9E08H         LINE#         1332
  C:9E10H         LINE#         1333
  C:9E10H         LINE#         1334
  C:9E10H         LINE#         1335
  C:9E15H         LINE#         1336
  C:9E15H         LINE#         1337
  C:9E30H         LINE#         1338
  C:9E44H         LINE#         1339
  C:9E4FH         LINE#         1340
  C:9E58H         LINE#         1341
  C:9E65H         LINE#         1342
  C:9E65H         LINE#         1343
  C:9E65H         LINE#         1344
  C:9E6AH         LINE#         1345
  C:9E6AH         LINE#         1346
  C:9E82H         LINE#         1347
  C:9E8FH         LINE#         1348
  C:9E9AH         LINE#         1349
  C:9EA0H         LINE#         1350
  C:9EADH         LINE#         1351
  C:9EADH         LINE#         1352
  C:9EADH         LINE#         1353
  C:9EBCH         LINE#         1354
  C:9EBCH         LINE#         1355
  C:9EC8H         LINE#         1356
  C:9ED9H         LINE#         1357
  C:9EE4H         LINE#         1358
  C:9EEAH         LINE#         1359
  C:9EF2H         LINE#         1360
  C:9EF2H         LINE#         1361
  -------         ENDPROC       _ROLL_APEAK_YZ
  -------         PROC          _POINT
  D:0007H         SYMBOL        x
  D:0005H         SYMBOL        y
  D:0003H         SYMBOL        z
  X:0259H         SYMBOL        le
  -------         DO            
  X:025AH         SYMBOL        ch1
  X:025BH         SYMBOL        ch0
  -------         ENDDO         
  C:C140H         LINE#         1362
  C:C140H         LINE#         1363
  C:C140H         LINE#         1365
  C:C14FH         LINE#         1366
  C:C152H         LINE#         1367
  C:C158H         LINE#         1368
  C:C17FH         LINE#         1370
  C:C1A9H         LINE#         1371
  -------         ENDPROC       _POINT
  -------         PROC          L?2719
  -------         ENDPROC       L?2719
  -------         PROC          _LINE
  D:0001H         SYMBOL        x1
  D:0002H         SYMBOL        y1
BL51 BANKED LINKER/LOCATER V6.22.2.0                                                  06/01/2023  21:05:43  PAGE 51


  D:0004H         SYMBOL        z1
  X:024BH         SYMBOL        x2
  X:024CH         SYMBOL        y2
  X:024DH         SYMBOL        z2
  X:024EH         SYMBOL        le
  -------         DO            
  X:024FH         SYMBOL        t
  X:0250H         SYMBOL        a
  X:0251H         SYMBOL        b
  X:0252H         SYMBOL        c
  X:0253H         SYMBOL        a1
  X:0254H         SYMBOL        b1
  X:0255H         SYMBOL        c1
  D:0002H         SYMBOL        i
  -------         ENDDO         
  C:967CH         LINE#         1372
  C:9682H         LINE#         1373
  C:9682H         LINE#         1375
  C:968DH         LINE#         1376
  C:9697H         LINE#         1377
  C:96A1H         LINE#         1378
  C:96C2H         LINE#         1379
  C:96C9H         LINE#         1380
  C:96D0H         LINE#         1381
  C:96D7H         LINE#         1382
  C:96F9H         LINE#         1383
  C:9710H         LINE#         1384
  C:972FH         LINE#         1385
  C:973FH         LINE#         1386
  C:973FH         LINE#         1387
  C:9760H         LINE#         1388
  C:976BH         LINE#         1389
  C:9776H         LINE#         1390
  C:9781H         LINE#         1391
  C:9784H         LINE#         1392
  -------         ENDPROC       _LINE
  -------         PROC          _TRANS
  X:023AH         SYMBOL        z
  X:023BH         SYMBOL        speed
  -------         DO            
  D:0007H         SYMBOL        i
  X:023DH         SYMBOL        j
  -------         ENDDO         
  C:C47BH         LINE#         1394
  C:C486H         LINE#         1395
  C:C486H         LINE#         1397
  C:C489H         LINE#         1398
  C:C489H         LINE#         1399
  C:C48BH         LINE#         1400
  C:C48BH         LINE#         1401
  C:C4AAH         LINE#         1402
  C:C4AFH         LINE#         1403
  C:C4BAH         LINE#         1404
  C:C4C0H         LINE#         1405
  C:C4CCH         LINE#         1406
  -------         ENDPROC       _TRANS
  -------         PROC          _ROLL_APEAK_XY
BL51 BANKED LINKER/LOCATER V6.22.2.0                                                  06/01/2023  21:05:43  PAGE 52


  D:0007H         SYMBOL        n
  X:023FH         SYMBOL        speed
  -------         DO            
  X:0241H         SYMBOL        i
  -------         ENDDO         
  C:9925H         LINE#         1407
  C:992DH         LINE#         1408
  C:992DH         LINE#         1410
  C:9944H         LINE#         1411
  C:9944H         LINE#         1412
  C:9944H         LINE#         1413
  C:9949H         LINE#         1414
  C:9949H         LINE#         1415
  C:9962H         LINE#         1416
  C:997DH         LINE#         1417
  C:9988H         LINE#         1418
  C:9995H         LINE#         1419
  C:9995H         LINE#         1420
  C:9995H         LINE#         1421
  C:99A7H         LINE#         1422
  C:99A7H         LINE#         1423
  C:99BBH         LINE#         1424
  C:99DDH         LINE#         1425
  C:99E8H         LINE#         1426
  C:99F0H         LINE#         1427
  C:99F0H         LINE#         1428
  C:99F0H         LINE#         1429
  C:9A02H         LINE#         1430
  C:9A02H         LINE#         1431
  C:9A1DH         LINE#         1432
  C:9A3CH         LINE#         1433
  C:9A47H         LINE#         1434
  C:9A4FH         LINE#         1435
  C:9A4FH         LINE#         1436
  C:9A4FH         LINE#         1437
  C:9A5EH         LINE#         1438
  C:9A5EH         LINE#         1439
  C:9A76H         LINE#         1440
  C:9A92H         LINE#         1441
  C:9A9DH         LINE#         1442
  C:9AA5H         LINE#         1443
  C:9AA5H         LINE#         1444
  -------         ENDPROC       _ROLL_APEAK_XY
  -------         PROC          _ROLL_3_XY
  D:0007H         SYMBOL        n
  X:0233H         SYMBOL        speed
  -------         DO            
  X:0235H         SYMBOL        i
  -------         ENDDO         
  C:8C4BH         LINE#         1445
  C:8C53H         LINE#         1446
  C:8C53H         LINE#         1448
  C:8C6AH         LINE#         1449
  C:8C6AH         LINE#         1450
  C:8C6AH         LINE#         1451
  C:8C6FH         LINE#         1452
  C:8C6FH         LINE#         1453
BL51 BANKED LINKER/LOCATER V6.22.2.0                                                  06/01/2023  21:05:43  PAGE 53


  C:8C8EH         LINE#         1454
  C:8C99H         LINE#         1455
  C:8CA3H         LINE#         1456
  C:8CBEH         LINE#         1457
  C:8CCBH         LINE#         1458
  C:8CCBH         LINE#         1459
  C:8CCBH         LINE#         1460
  C:8CD0H         LINE#         1461
  C:8CD0H         LINE#         1462
  C:8CF1H         LINE#         1463
  C:8CFCH         LINE#         1464
  C:8D06H         LINE#         1465
  C:8D20H         LINE#         1466
  C:8D2DH         LINE#         1467
  C:8D2DH         LINE#         1468
  C:8D2DH         LINE#         1469
  C:8D32H         LINE#         1470
  C:8D32H         LINE#         1471
  C:8D51H         LINE#         1472
  C:8D5CH         LINE#         1473
  C:8D66H         LINE#         1474
  C:8D83H         LINE#         1475
  C:8D90H         LINE#         1476
  C:8D90H         LINE#         1477
  C:8D90H         LINE#         1478
  C:8D95H         LINE#         1479
  C:8D95H         LINE#         1480
  C:8DB6H         LINE#         1481
  C:8DC1H         LINE#         1482
  C:8DCBH         LINE#         1483
  C:8DE9H         LINE#         1484
  C:8DF5H         LINE#         1485
  C:8DF5H         LINE#         1486
  -------         ENDPROC       _ROLL_3_XY
  -------         PROC          _TRAILLER
  X:0231H         SYMBOL        speed
  -------         DO            
  X:0233H         SYMBOL        i
  X:0234H         SYMBOL        j
  -------         ENDDO         
  C:AE7DH         LINE#         1487
  C:AE85H         LINE#         1488
  C:AE85H         LINE#         1490
  C:AE98H         LINE#         1491
  C:AE98H         LINE#         1492
  C:AEA2H         LINE#         1493
  C:AEA2H         LINE#         1494
  C:AEA5H         LINE#         1495
  C:AF20H         LINE#         1496
  C:AF20H         LINE#         1497
  C:AF2BH         LINE#         1498
  C:AF2BH         LINE#         1499
  C:AF3AH         LINE#         1500
  C:AF77H         LINE#         1501
  C:AF77H         LINE#         1502
  C:AF82H         LINE#         1503
  C:AF8BH         LINE#         1504
BL51 BANKED LINKER/LOCATER V6.22.2.0                                                  06/01/2023  21:05:43  PAGE 54


  C:AF94H         LINE#         1505
  -------         ENDPROC       _TRAILLER
  -------         PROC          _PIAOZHI
  X:0230H         SYMBOL        P_zf
  X:0233H         SYMBOL        speed
  X:0235H         SYMBOL        a
  -------         DO            
  X:0236H         SYMBOL        i
  X:0237H         SYMBOL        j
  X:0238H         SYMBOL        k
  X:0239H         SYMBOL        z
  -------         ENDDO         
  C:9C26H         LINE#         1509
  C:9C37H         LINE#         1510
  C:9C37H         LINE#         1512
  C:9C3CH         LINE#         1513
  C:9C41H         LINE#         1514
  C:9C4AH         LINE#         1515
  C:9C58H         LINE#         1516
  C:9C6FH         LINE#         1517
  C:9C82H         LINE#         1518
  C:9C82H         LINE#         1519
  C:9C85H         LINE#         1520
  C:9C85H         LINE#         1521
  C:9C8AH         LINE#         1522
  C:9C8AH         LINE#         1523
  C:9CC4H         LINE#         1524
  C:9CC4H         LINE#         1525
  C:9CD4H         LINE#         1526
  C:9CD4H         LINE#         1527
  C:9CEAH         LINE#         1528
  C:9CF2H         LINE#         1529
  C:9D07H         LINE#         1530
  C:9D12H         LINE#         1531
  C:9D28H         LINE#         1532
  C:9D30H         LINE#         1533
  C:9D30H         LINE#         1534
  C:9D3FH         LINE#         1535
  C:9D4EH         LINE#         1536
  C:9D71H         LINE#         1537
  C:9D7AH         LINE#         1538
  C:9D8FH         LINE#         1539
  C:9D98H         LINE#         1540
  -------         ENDPROC       _PIAOZHI
  -------         PROC          FLASH_1
  -------         DO            
  X:0230H         SYMBOL        i
  -------         ENDDO         
  C:C856H         LINE#         1544
  C:C856H         LINE#         1545
  C:C856H         LINE#         1548
  C:C85BH         LINE#         1549
  C:C86BH         LINE#         1550
  C:C86BH         LINE#         1551
  C:C870H         LINE#         1552
  C:C877H         LINE#         1553
  C:C87FH         LINE#         1554
BL51 BANKED LINKER/LOCATER V6.22.2.0                                                  06/01/2023  21:05:43  PAGE 55


  C:C887H         LINE#         1555
  -------         ENDPROC       FLASH_1
  -------         PROC          FLASH_2
  -------         DO            
  X:0230H         SYMBOL        i
  -------         ENDDO         
  C:B38EH         LINE#         1557
  C:B38EH         LINE#         1558
  C:B38EH         LINE#         1560
  C:B393H         LINE#         1561
  C:B3A3H         LINE#         1562
  C:B3A3H         LINE#         1563
  C:B3A6H         LINE#         1564
  C:B3ADH         LINE#         1565
  C:B3B9H         LINE#         1566
  C:B3C1H         LINE#         1567
  C:B3C8H         LINE#         1568
  C:B3D7H         LINE#         1569
  C:B3D7H         LINE#         1570
  C:B3DEH         LINE#         1571
  C:B3E5H         LINE#         1572
  C:B3F3H         LINE#         1573
  C:B3FAH         LINE#         1574
  C:B402H         LINE#         1575
  C:B409H         LINE#         1576
  C:B419H         LINE#         1577
  C:B419H         LINE#         1578
  C:B41CH         LINE#         1579
  C:B423H         LINE#         1580
  C:B42BH         LINE#         1581
  C:B431H         LINE#         1582
  C:B431H         LINE#         1583
  C:B438H         LINE#         1584
  C:B444H         LINE#         1585
  C:B453H         LINE#         1586
  C:B453H         LINE#         1587
  C:B45EH         LINE#         1588
  C:B465H         LINE#         1589
  C:B46EH         LINE#         1590
  C:B476H         LINE#         1591
  C:B47DH         LINE#         1592
  -------         ENDPROC       FLASH_2
  -------         PROC          FLASH_3
  -------         DO            
  X:0230H         SYMBOL        i
  -------         ENDDO         
  C:A7AEH         LINE#         1594
  C:A7AEH         LINE#         1595
  C:A7AEH         LINE#         1597
  C:A7B3H         LINE#         1598
  C:A7B3H         LINE#         1599
  C:A7D1H         LINE#         1600
  C:A7D8H         LINE#         1601
  C:A7E3H         LINE#         1602
  C:A7FEH         LINE#         1603
  C:A806H         LINE#         1604
  C:A814H         LINE#         1605
BL51 BANKED LINKER/LOCATER V6.22.2.0                                                  06/01/2023  21:05:43  PAGE 56


  C:A81AH         LINE#         1606
  C:A81AH         LINE#         1607
  C:A838H         LINE#         1608
  C:A83FH         LINE#         1609
  C:A84AH         LINE#         1610
  C:A865H         LINE#         1611
  C:A873H         LINE#         1612
  C:A878H         LINE#         1613
  C:A878H         LINE#         1614
  C:A896H         LINE#         1615
  C:A89DH         LINE#         1616
  C:A8A8H         LINE#         1617
  C:A8C3H         LINE#         1618
  C:A8CCH         LINE#         1619
  C:A8DAH         LINE#         1621
  -------         ENDPROC       FLASH_3
  -------         PROC          FLASH_4
  -------         DO            
  X:0230H         SYMBOL        i
  X:0231H         SYMBOL        j
  X:0232H         SYMBOL        an
  -------         ENDDO         
  C:67E1H         LINE#         1623
  C:67E1H         LINE#         1624
  C:67E1H         LINE#         1626
  C:67F3H         LINE#         1627
  C:680DH         LINE#         1628
  C:6812H         LINE#         1629
  C:6812H         LINE#         1630
  C:6823H         LINE#         1631
  C:6823H         LINE#         1632
  C:6853H         LINE#         1633
  C:6883H         LINE#         1634
  C:688BH         LINE#         1635
  C:689CH         LINE#         1636
  C:689CH         LINE#         1637
  C:68DCH         LINE#         1638
  C:690BH         LINE#         1639
  C:6914H         LINE#         1640
  C:6925H         LINE#         1641
  C:6925H         LINE#         1642
  C:693CH         LINE#         1643
  C:6949H         LINE#         1644
  C:6951H         LINE#         1645
  C:6958H         LINE#         1646
  C:6960H         LINE#         1647
  C:6971H         LINE#         1648
  C:6976H         LINE#         1649
  C:699CH         LINE#         1650
  C:69A1H         LINE#         1651
  C:69A1H         LINE#         1652
  C:69B2H         LINE#         1653
  C:69B2H         LINE#         1654
  C:69E2H         LINE#         1655
  C:6A12H         LINE#         1656
  C:6A1AH         LINE#         1657
  C:6A2BH         LINE#         1658
BL51 BANKED LINKER/LOCATER V6.22.2.0                                                  06/01/2023  21:05:43  PAGE 57


  C:6A2BH         LINE#         1659
  C:6A5CH         LINE#         1660
  C:6A8BH         LINE#         1661
  C:6A93H         LINE#         1662
  C:6AA4H         LINE#         1663
  C:6AA4H         LINE#         1664
  C:6ABBH         LINE#         1665
  C:6AC8H         LINE#         1666
  C:6AD0H         LINE#         1667
  C:6AD7H         LINE#         1668
  C:6AE0H         LINE#         1669
  C:6AF1H         LINE#         1670
  -------         ENDPROC       FLASH_4
  -------         PROC          FLASH_5
  -------         DO            
  X:0230H         SYMBOL        a
  X:0232H         SYMBOL        i
  X:0233H         SYMBOL        j
  X:0234H         SYMBOL        an
  -------         ENDDO         
  C:2D0FH         LINE#         1672
  C:2D0FH         LINE#         1673
  C:2D0FH         LINE#         1674
  C:2D19H         LINE#         1675
  C:2D1DH         LINE#         1677
  C:2D2CH         LINE#         1678
  C:2D46H         LINE#         1679
  C:2D53H         LINE#         1680
  C:2D53H         LINE#         1681
  C:2D62H         LINE#         1682
  C:2D62H         LINE#         1683
  C:2D7AH         LINE#         1684
  C:2D7DH         LINE#         1685
  C:2D99H         LINE#         1686
  C:2DB8H         LINE#         1687
  C:2DC1H         LINE#         1688
  C:2DD2H         LINE#         1689
  C:2DD2H         LINE#         1690
  C:2DE9H         LINE#         1691
  C:2DF6H         LINE#         1692
  C:2DFEH         LINE#         1693
  C:2E09H         LINE#         1694
  C:2E0CH         LINE#         1695
  C:2E12H         LINE#         1696
  C:2E15H         LINE#         1697
  C:2E3BH         LINE#         1698
  C:2E48H         LINE#         1699
  C:2E48H         LINE#         1700
  C:2E58H         LINE#         1701
  C:2E58H         LINE#         1702
  C:2E70H         LINE#         1703
  C:2E73H         LINE#         1704
  C:2E8FH         LINE#         1705
  C:2EAEH         LINE#         1706
  C:2EB7H         LINE#         1707
  C:2EC8H         LINE#         1708
  C:2EC8H         LINE#         1709
BL51 BANKED LINKER/LOCATER V6.22.2.0                                                  06/01/2023  21:05:43  PAGE 58


  C:2EDFH         LINE#         1710
  C:2EECH         LINE#         1711
  C:2EF4H         LINE#         1712
  C:2EFFH         LINE#         1713
  C:2F0BH         LINE#         1714
  C:2F0BH         LINE#         1715
  C:2F11H         LINE#         1716
  C:2F15H         LINE#         1717
  C:2F3BH         LINE#         1718
  C:2F48H         LINE#         1719
  C:2F48H         LINE#         1720
  C:2F58H         LINE#         1721
  C:2F58H         LINE#         1722
  C:2F70H         LINE#         1723
  C:2F73H         LINE#         1724
  C:2F8FH         LINE#         1725
  C:2FADH         LINE#         1726
  C:2FB6H         LINE#         1727
  C:2FC8H         LINE#         1728
  C:2FC8H         LINE#         1729
  C:2FDFH         LINE#         1730
  C:2FECH         LINE#         1731
  C:2FF4H         LINE#         1732
  C:2FFFH         LINE#         1733
  C:3002H         LINE#         1734
  C:3008H         LINE#         1735
  C:300BH         LINE#         1736
  C:302EH         LINE#         1737
  C:303BH         LINE#         1738
  C:303BH         LINE#         1739
  C:304BH         LINE#         1740
  C:304BH         LINE#         1741
  C:3063H         LINE#         1742
  C:3066H         LINE#         1743
  C:3082H         LINE#         1744
  C:30A0H         LINE#         1745
  C:30A9H         LINE#         1746
  C:30BAH         LINE#         1747
  C:30D4H         LINE#         1748
  C:30DFH         LINE#         1749
  C:30EBH         LINE#         1750
  C:30EBH         LINE#         1751
  C:30F1H         LINE#         1752
  C:30FFH         LINE#         1753
  C:3119H         LINE#         1754
  C:3126H         LINE#         1755
  C:3126H         LINE#         1756
  C:312AH         LINE#         1757
  C:312AH         LINE#         1758
  C:313AH         LINE#         1759
  C:316DH         LINE#         1760
  C:317BH         LINE#         1761
  C:318CH         LINE#         1762
  C:318CH         LINE#         1763
  C:31A3H         LINE#         1764
  C:31B0H         LINE#         1765
  C:31B8H         LINE#         1766
BL51 BANKED LINKER/LOCATER V6.22.2.0                                                  06/01/2023  21:05:43  PAGE 59


  C:31C3H         LINE#         1767
  C:31C6H         LINE#         1768
  C:31CCH         LINE#         1769
  C:31CFH         LINE#         1770
  C:31F5H         LINE#         1771
  C:3202H         LINE#         1772
  C:3202H         LINE#         1773
  C:3212H         LINE#         1774
  C:3212H         LINE#         1775
  C:322AH         LINE#         1776
  C:322DH         LINE#         1777
  C:3249H         LINE#         1778
  C:3268H         LINE#         1779
  C:3271H         LINE#         1780
  C:3282H         LINE#         1781
  C:3282H         LINE#         1782
  C:3299H         LINE#         1783
  C:32A6H         LINE#         1784
  C:32AEH         LINE#         1785
  C:32B9H         LINE#         1786
  C:32C5H         LINE#         1787
  C:32C5H         LINE#         1788
  C:32CBH         LINE#         1789
  C:32CEH         LINE#         1790
  C:32F4H         LINE#         1791
  C:32FAH         LINE#         1792
  C:3307H         LINE#         1793
  C:3307H         LINE#         1794
  C:3316H         LINE#         1795
  C:3316H         LINE#         1796
  C:332EH         LINE#         1797
  C:3331H         LINE#         1798
  C:334DH         LINE#         1799
  C:336BH         LINE#         1800
  C:3374H         LINE#         1801
  C:3385H         LINE#         1802
  C:3385H         LINE#         1803
  C:3398H         LINE#         1804
  C:33ABH         LINE#         1805
  C:33B3H         LINE#         1806
  C:33BEH         LINE#         1807
  C:33C1H         LINE#         1808
  C:33C7H         LINE#         1809
  C:33CAH         LINE#         1810
  C:33EEH         LINE#         1811
  C:33FBH         LINE#         1812
  C:33FBH         LINE#         1813
  C:340AH         LINE#         1814
  C:340AH         LINE#         1815
  C:3422H         LINE#         1816
  C:3425H         LINE#         1817
  C:3441H         LINE#         1818
  C:345FH         LINE#         1819
  C:3468H         LINE#         1820
  C:3479H         LINE#         1821
  C:3479H         LINE#         1822
  C:3490H         LINE#         1823
BL51 BANKED LINKER/LOCATER V6.22.2.0                                                  06/01/2023  21:05:43  PAGE 60


  C:349DH         LINE#         1824
  C:34A5H         LINE#         1825
  C:34B0H         LINE#         1826
  C:34BBH         LINE#         1827
  C:34BBH         LINE#         1828
  -------         ENDPROC       FLASH_5
  -------         PROC          FLASH_6
  C:CB50H         LINE#         1830
  C:CB50H         LINE#         1831
  C:CB50H         LINE#         1832
  C:CB63H         LINE#         1833
  C:CB6BH         LINE#         1834
  -------         ENDPROC       FLASH_6
  -------         PROC          FLASH_7
  -------         DO            
  X:0230H         SYMBOL        i
  X:0231H         SYMBOL        a
  -------         ENDDO         
  C:B565H         LINE#         1836
  C:B565H         LINE#         1837
  C:B565H         LINE#         1839
  C:B56FH         LINE#         1840
  C:B57EH         LINE#         1841
  C:B57EH         LINE#         1842
  C:B585H         LINE#         1843
  C:B58DH         LINE#         1844
  C:B595H         LINE#         1846
  C:B5A4H         LINE#         1847
  C:B5A4H         LINE#         1848
  C:B5C1H         LINE#         1849
  C:B5CCH         LINE#         1850
  C:B5D4H         LINE#         1851
  C:B5D9H         LINE#         1852
  C:B5D9H         LINE#         1853
  C:B5E0H         LINE#         1854
  C:B5EEH         LINE#         1855
  C:B5F5H         LINE#         1856
  C:B601H         LINE#         1857
  C:B607H         LINE#         1858
  C:B607H         LINE#         1859
  C:B622H         LINE#         1860
  C:B62DH         LINE#         1861
  C:B636H         LINE#         1862
  C:B642H         LINE#         1863
  -------         ENDPROC       FLASH_7
  -------         PROC          FLASH_8
  -------         DO            
  X:0230H         SYMBOL        i
  -------         ENDDO         
  C:C8BAH         LINE#         1865
  C:C8BAH         LINE#         1866
  C:C8BAH         LINE#         1868
  C:C8CAH         LINE#         1869
  C:C8CAH         LINE#         1870
  C:C8D1H         LINE#         1871
  C:C8D8H         LINE#         1872
  C:C8E1H         LINE#         1873
BL51 BANKED LINKER/LOCATER V6.22.2.0                                                  06/01/2023  21:05:43  PAGE 61


  C:C8E9H         LINE#         1874
  -------         ENDPROC       FLASH_8
  -------         PROC          FLASH_9
  -------         DO            
  X:0230H         SYMBOL        i
  X:0231H         SYMBOL        j
  X:0232H         SYMBOL        an
  X:023AH         SYMBOL        x
  X:023BH         SYMBOL        y
  X:023CH         SYMBOL        t
  X:023DH         SYMBOL        x1
  X:023EH         SYMBOL        y1
  -------         ENDDO         
  C:4672H         LINE#         1876
  C:4672H         LINE#         1877
  C:4672H         LINE#         1880
  C:4677H         LINE#         1881
  C:4677H         LINE#         1882
  C:4692H         LINE#         1883
  C:4698H         LINE#         1884
  C:46B0H         LINE#         1885
  C:46B7H         LINE#         1886
  C:46C5H         LINE#         1887
  C:46CEH         LINE#         1888
  C:46D7H         LINE#         1889
  C:46E0H         LINE#         1890
  C:46E8H         LINE#         1891
  C:46EDH         LINE#         1892
  C:46EDH         LINE#         1893
  C:470FH         LINE#         1894
  C:4727H         LINE#         1895
  C:472EH         LINE#         1896
  C:473CH         LINE#         1897
  C:474DH         LINE#         1898
  C:4767H         LINE#         1899
  C:476CH         LINE#         1900
  C:476CH         LINE#         1901
  C:4771H         LINE#         1902
  C:4776H         LINE#         1903
  C:4776H         LINE#         1904
  C:4776H         LINE#         1905
  C:4776H         LINE#         1906
  C:4776H         LINE#         1907
  C:4776H         LINE#         1908
  C:4776H         LINE#         1909
  C:4776H         LINE#         1910
  C:4779H         LINE#         1911
  C:4785H         LINE#         1912
  C:4794H         LINE#         1913
  C:4794H         LINE#         1914
  C:47CCH         LINE#         1915
  C:47D9H         LINE#         1916
  C:47E1H         LINE#         1917
  C:47E8H         LINE#         1918
  C:47F0H         LINE#         1919
  C:4801H         LINE#         1920
  C:4806H         LINE#         1921
BL51 BANKED LINKER/LOCATER V6.22.2.0                                                  06/01/2023  21:05:43  PAGE 62


  C:4806H         LINE#         1922
  C:480BH         LINE#         1923
  C:4810H         LINE#         1924
  C:4810H         LINE#         1925
  C:4810H         LINE#         1926
  C:4810H         LINE#         1927
  C:4810H         LINE#         1928
  C:4810H         LINE#         1929
  C:4810H         LINE#         1930
  C:4810H         LINE#         1931
  C:4813H         LINE#         1932
  C:481FH         LINE#         1933
  C:482EH         LINE#         1934
  C:482EH         LINE#         1935
  C:4866H         LINE#         1936
  C:4873H         LINE#         1937
  C:487BH         LINE#         1938
  C:4882H         LINE#         1939
  C:4893H         LINE#         1940
  C:4898H         LINE#         1941
  C:4898H         LINE#         1942
  C:489DH         LINE#         1943
  C:48ACH         LINE#         1944
  C:48BBH         LINE#         1945
  C:48C3H         LINE#         1946
  C:48D5H         LINE#         1947
  C:48E4H         LINE#         1948
  C:48ECH         LINE#         1949
  C:4907H         LINE#         1950
  C:492DH         LINE#         1951
  C:4933H         LINE#         1952
  C:493AH         LINE#         1953
  C:4942H         LINE#         1954
  C:4953H         LINE#         1955
  C:4958H         LINE#         1956
  C:4958H         LINE#         1957
  C:495DH         LINE#         1958
  C:496CH         LINE#         1959
  C:497BH         LINE#         1960
  C:4983H         LINE#         1961
  C:4995H         LINE#         1962
  C:49A4H         LINE#         1963
  C:49ACH         LINE#         1964
  C:49C7H         LINE#         1965
  C:49CDH         LINE#         1966
  C:49D4H         LINE#         1967
  C:49E5H         LINE#         1968
  C:49F6H         LINE#         1969
  C:49F6H         LINE#         1970
  C:4A0AH         LINE#         1971
  C:4A11H         LINE#         1972
  C:4A19H         LINE#         1973
  C:4A2BH         LINE#         1974
  C:4A2BH         LINE#         1975
  C:4A41H         LINE#         1976
  C:4A48H         LINE#         1977
  C:4A50H         LINE#         1978
BL51 BANKED LINKER/LOCATER V6.22.2.0                                                  06/01/2023  21:05:43  PAGE 63


  C:4A58H         LINE#         1979
  C:4A5EH         LINE#         1980
  C:4A5EH         LINE#         1981
  C:4A63H         LINE#         1982
  C:4A83H         LINE#         1983
  C:4A8AH         LINE#         1984
  C:4A98H         LINE#         1985
  C:4A9EH         LINE#         1986
  C:4A9EH         LINE#         1987
  C:4AA3H         LINE#         1988
  C:4AC1H         LINE#         1989
  C:4AC8H         LINE#         1990
  C:4AD6H         LINE#         1991
  C:4ADCH         LINE#         1992
  C:4ADCH         LINE#         1993
  C:4AE1H         LINE#         1994
  C:4AF9H         LINE#         1995
  C:4B00H         LINE#         1996
  C:4B0EH         LINE#         1997
  C:4B14H         LINE#         1998
  C:4B14H         LINE#         1999
  C:4B19H         LINE#         2000
  C:4B38H         LINE#         2001
  C:4B3FH         LINE#         2002
  C:4B4DH         LINE#         2003
  C:4B5FH         LINE#         2004
  C:4B5FH         LINE#         2005
  C:4B7CH         LINE#         2006
  C:4B83H         LINE#         2007
  C:4B8BH         LINE#         2008
  C:4B91H         LINE#         2009
  C:4B91H         LINE#         2010
  C:4B96H         LINE#         2011
  C:4BB9H         LINE#         2012
  C:4BC0H         LINE#         2013
  C:4BC9H         LINE#         2014
  C:4BD7H         LINE#         2015
  -------         ENDPROC       FLASH_9
  -------         PROC          FLASH_10
  -------         DO            
  X:0230H         SYMBOL        i
  X:0231H         SYMBOL        j
  X:0232H         SYMBOL        an
  X:0236H         SYMBOL        x
  X:0237H         SYMBOL        y
  X:0238H         SYMBOL        t
  -------         ENDDO         
  C:3AE8H         LINE#         2017
  C:3AE8H         LINE#         2018
  C:3AE8H         LINE#         2020
  C:3AEEH         LINE#         2021
  C:3AEEH         LINE#         2022
  C:3AF3H         LINE#         2023
  C:3B0CH         LINE#         2024
  C:3B34H         LINE#         2025
  C:3B51H         LINE#         2026
  C:3B76H         LINE#         2027
BL51 BANKED LINKER/LOCATER V6.22.2.0                                                  06/01/2023  21:05:43  PAGE 64


  C:3B9DH         LINE#         2028
  C:3BC4H         LINE#         2029
  C:3BEEH         LINE#         2030
  C:3C12H         LINE#         2031
  C:3C19H         LINE#         2032
  C:3C21H         LINE#         2033
  C:3C30H         LINE#         2034
  C:3C35H         LINE#         2035
  C:3C35H         LINE#         2036
  C:3C4BH         LINE#         2037
  C:3C55H         LINE#         2038
  C:3C5AH         LINE#         2039
  C:3C5AH         LINE#         2040
  C:3C5FH         LINE#         2041
  C:3C6EH         LINE#         2042
  C:3C6EH         LINE#         2043
  C:3C83H         LINE#         2044
  C:3C90H         LINE#         2045
  C:3C95H         LINE#         2046
  C:3CB8H         LINE#         2047
  C:3CDDH         LINE#         2048
  C:3CE6H         LINE#         2049
  C:3CF5H         LINE#         2050
  C:3D0AH         LINE#         2051
  C:3D11H         LINE#         2052
  C:3D19H         LINE#         2053
  C:3D28H         LINE#         2054
  C:3D2DH         LINE#         2055
  C:3D2DH         LINE#         2056
  C:3D32H         LINE#         2057
  C:3D41H         LINE#         2058
  C:3D41H         LINE#         2059
  C:3D56H         LINE#         2060
  C:3D63H         LINE#         2061
  C:3D68H         LINE#         2062
  C:3D8BH         LINE#         2063
  C:3DB0H         LINE#         2064
  C:3DB9H         LINE#         2065
  C:3DC8H         LINE#         2066
  C:3DDDH         LINE#         2067
  C:3DE4H         LINE#         2068
  C:3DECH         LINE#         2069
  C:3DFBH         LINE#         2070
  C:3E00H         LINE#         2071
  C:3E00H         LINE#         2072
  C:3E05H         LINE#         2073
  C:3E14H         LINE#         2074
  C:3E14H         LINE#         2075
  C:3E29H         LINE#         2076
  C:3E36H         LINE#         2077
  C:3E3BH         LINE#         2078
  C:3E60H         LINE#         2079
  C:3E85H         LINE#         2080
  C:3E8EH         LINE#         2081
  C:3E9DH         LINE#         2082
  C:3EB2H         LINE#         2083
  C:3EB9H         LINE#         2084
BL51 BANKED LINKER/LOCATER V6.22.2.0                                                  06/01/2023  21:05:43  PAGE 65


  C:3EC1H         LINE#         2085
  C:3ED0H         LINE#         2086
  C:3ED5H         LINE#         2087
  C:3ED5H         LINE#         2088
  C:3EDAH         LINE#         2089
  C:3EE9H         LINE#         2090
  C:3EE9H         LINE#         2091
  C:3EFEH         LINE#         2092
  C:3F0BH         LINE#         2093
  C:3F10H         LINE#         2094
  C:3F35H         LINE#         2095
  C:3F5AH         LINE#         2096
  C:3F63H         LINE#         2097
  C:3F72H         LINE#         2098
  C:3F87H         LINE#         2099
  C:3F8EH         LINE#         2100
  C:3F96H         LINE#         2101
  C:3FA5H         LINE#         2102
  C:3FABH         LINE#         2103
  C:3FABH         LINE#         2104
  C:3FB0H         LINE#         2105
  C:3FC9H         LINE#         2106
  C:3FF1H         LINE#         2107
  C:400EH         LINE#         2108
  C:4033H         LINE#         2109
  C:405AH         LINE#         2110
  C:4081H         LINE#         2111
  C:40ABH         LINE#         2112
  C:40CFH         LINE#         2113
  C:40D6H         LINE#         2114
  C:40DFH         LINE#         2115
  C:40EEH         LINE#         2116
  -------         ENDPROC       FLASH_10
  -------         PROC          FLASH_11
  -------         DO            
  X:0230H         SYMBOL        i
  X:0231H         SYMBOL        j
  X:0232H         SYMBOL        t
  X:0233H         SYMBOL        x
  X:0234H         SYMBOL        y
  C:2A82H         SYMBOL        daa
  -------         ENDDO         
  C:9476H         LINE#         2118
  C:9476H         LINE#         2119
  C:9476H         LINE#         2122
  C:947BH         LINE#         2123
  C:9480H         LINE#         2124
  C:9480H         LINE#         2125
  C:948FH         LINE#         2126
  C:948FH         LINE#         2127
  C:949AH         LINE#         2128
  C:949AH         LINE#         2129
  C:94A1H         LINE#         2130
  C:94B9H         LINE#         2131
  C:94BBH         LINE#         2133
  C:94C7H         LINE#         2134
  C:94E2H         LINE#         2135
BL51 BANKED LINKER/LOCATER V6.22.2.0                                                  06/01/2023  21:05:43  PAGE 66


  C:94E5H         LINE#         2136
  C:94ECH         LINE#         2137
  C:94F4H         LINE#         2138
  C:94FCH         LINE#         2139
  C:950BH         LINE#         2140
  C:951BH         LINE#         2141
  C:951BH         LINE#         2142
  C:9520H         LINE#         2143
  C:9526H         LINE#         2145
  C:952BH         LINE#         2146
  C:953AH         LINE#         2147
  C:953AH         LINE#         2148
  C:9547H         LINE#         2149
  C:954DH         LINE#         2150
  C:956AH         LINE#         2151
  C:956DH         LINE#         2152
  C:9574H         LINE#         2153
  C:957BH         LINE#         2154
  C:9588H         LINE#         2155
  C:9590H         LINE#         2156
  C:95A0H         LINE#         2157
  C:95A0H         LINE#         2158
  C:95A5H         LINE#         2159
  C:95ABH         LINE#         2161
  C:95B0H         LINE#         2162
  C:95BFH         LINE#         2163
  C:95BFH         LINE#         2164
  C:95CEH         LINE#         2165
  C:95D4H         LINE#         2166
  C:95DFH         LINE#         2167
  C:95E2H         LINE#         2168
  C:95E9H         LINE#         2169
  C:95F2H         LINE#         2170
  C:95FFH         LINE#         2171
  C:9607H         LINE#         2172
  -------         ENDPROC       FLASH_11
  -------         PROC          FLASH_12
  C:CC79H         LINE#         2174
  C:CC79H         LINE#         2175
  C:CC79H         LINE#         2176
  C:CC7EH         LINE#         2177
  -------         ENDPROC       FLASH_12
  -------         PROC          FLASH_13
  -------         DO            
  X:0230H         SYMBOL        i
  -------         ENDDO         
  C:C51FH         LINE#         2180
  C:C51FH         LINE#         2181
  C:C51FH         LINE#         2183
  C:C524H         LINE#         2184
  C:C524H         LINE#         2185
  C:C529H         LINE#         2186
  C:C533H         LINE#         2187
  C:C53AH         LINE#         2188
  C:C541H         LINE#         2189
  C:C559H         LINE#         2190
  C:C565H         LINE#         2191
BL51 BANKED LINKER/LOCATER V6.22.2.0                                                  06/01/2023  21:05:43  PAGE 67


  -------         ENDPROC       FLASH_13
  -------         PROC          FLASH_14
  -------         DO            
  X:0230H         SYMBOL        i
  -------         ENDDO         
  C:C322H         LINE#         2193
  C:C322H         LINE#         2194
  C:C322H         LINE#         2196
  C:C327H         LINE#         2197
  C:C327H         LINE#         2198
  C:C32CH         LINE#         2199
  C:C335H         LINE#         2200
  C:C33CH         LINE#         2201
  C:C348H         LINE#         2202
  C:C34DH         LINE#         2203
  C:C34DH         LINE#         2204
  C:C352H         LINE#         2205
  C:C35FH         LINE#         2206
  C:C366H         LINE#         2207
  C:C372H         LINE#         2208
  C:C37AH         LINE#         2209
  -------         ENDPROC       FLASH_14
  -------         PROC          FLASH_15
  C:CC0FH         LINE#         2211
  C:CC0FH         LINE#         2212
  C:CC0FH         LINE#         2213
  C:CC18H         LINE#         2214
  -------         ENDPROC       FLASH_15
  -------         PROC          FLASH_16
  C:CA76H         LINE#         2217
  C:CA76H         LINE#         2218
  C:CA76H         LINE#         2219
  C:CA8DH         LINE#         2220
  C:CA95H         LINE#         2221
  -------         ENDPROC       FLASH_16
  -------         PROC          FLASH_17
  C:C997H         LINE#         2223
  C:C997H         LINE#         2224
  C:C997H         LINE#         2225
  C:C99CH         LINE#         2226
  C:C9A1H         LINE#         2227
  C:C9A8H         LINE#         2228
  C:C9AFH         LINE#         2229
  C:C9B6H         LINE#         2230
  C:C9BEH         LINE#         2231
  -------         ENDPROC       FLASH_17
  -------         PROC          FLASH_18
  C:CA31H         LINE#         2233
  C:CA31H         LINE#         2234
  C:CA31H         LINE#         2235
  C:CA43H         LINE#         2236
  C:CA54H         LINE#         2237
  -------         ENDPROC       FLASH_18
  -------         PROC          FLASH_19
  -------         DO            
  X:0230H         SYMBOL        i
  -------         ENDDO         
BL51 BANKED LINKER/LOCATER V6.22.2.0                                                  06/01/2023  21:05:43  PAGE 68


  C:C566H         LINE#         2239
  C:C566H         LINE#         2240
  C:C566H         LINE#         2242
  C:C575H         LINE#         2243
  C:C575H         LINE#         2244
  C:C57CH         LINE#         2245
  C:C583H         LINE#         2246
  C:C58AH         LINE#         2247
  C:C5A2H         LINE#         2248
  C:C5AAH         LINE#         2249
  -------         ENDPROC       FLASH_19
  -------         PROC          FLASH_20
  -------         DO            
  X:0230H         SYMBOL        a
  X:0270H         SYMBOL        i
  -------         ENDDO         
  C:B09FH         LINE#         2251
  C:B09FH         LINE#         2252
  C:B09FH         LINE#         2253
  C:B0B2H         LINE#         2255
  C:B0C3H         LINE#         2256
  C:B0C3H         LINE#         2257
  C:B0E1H         LINE#         2258
  C:B0FFH         LINE#         2259
  C:B105H         LINE#         2260
  C:B105H         LINE#         2261
  C:B105H         LINE#         2262
  C:B105H         LINE#         2264
  C:B105H         LINE#         2265
  C:B110H         LINE#         2266
  C:B110H         LINE#         2267
  C:B113H         LINE#         2268
  C:B11BH         LINE#         2269
  C:B121H         LINE#         2270
  C:B121H         LINE#         2272
  C:B121H         LINE#         2274
  C:B121H         LINE#         2275
  C:B12CH         LINE#         2276
  C:B12CH         LINE#         2277
  C:B13EH         LINE#         2278
  C:B13EH         LINE#         2279
  C:B15BH         LINE#         2280
  C:B178H         LINE#         2281
  C:B17EH         LINE#         2282
  C:B17EH         LINE#         2283
  C:B17EH         LINE#         2284
  C:B17EH         LINE#         2286
  C:B17EH         LINE#         2287
  C:B189H         LINE#         2288
  C:B189H         LINE#         2289
  C:B18CH         LINE#         2290
  C:B194H         LINE#         2291
  C:B19CH         LINE#         2292
  -------         ENDPROC       FLASH_20
  -------         PROC          FLASH_21
  -------         DO            
  X:0230H         SYMBOL        i
BL51 BANKED LINKER/LOCATER V6.22.2.0                                                  06/01/2023  21:05:43  PAGE 69


  -------         ENDDO         
  C:C5EDH         LINE#         2294
  C:C5EDH         LINE#         2295
  C:C5EDH         LINE#         2297
  C:C5FEH         LINE#         2298
  C:C5FEH         LINE#         2299
  C:C61BH         LINE#         2300
  C:C624H         LINE#         2301
  C:C62CH         LINE#         2302
  -------         ENDPROC       FLASH_21
  -------         PROC          FLASH_22
  C:C9BFH         LINE#         2304
  C:C9BFH         LINE#         2305
  C:C9BFH         LINE#         2306
  C:C9D6H         LINE#         2307
  C:C9E4H         LINE#         2308
  -------         ENDPROC       FLASH_22
  -------         PROC          FLASH_23
  -------         DO            
  X:0230H         SYMBOL        i
  X:0231H         SYMBOL        j
  X:0232H         SYMBOL        k
  X:0233H         SYMBOL        v
  X:0234H         SYMBOL        a
  -------         ENDDO         
  C:40EFH         LINE#         2310
  C:40EFH         LINE#         2311
  C:40EFH         LINE#         2312
  C:40F5H         LINE#         2313
  C:4108H         LINE#         2314
  C:410EH         LINE#         2315
  C:410EH         LINE#         2316
  C:4131H         LINE#         2317
  C:4137H         LINE#         2318
  C:4147H         LINE#         2319
  C:414AH         LINE#         2320
  C:4158H         LINE#         2321
  C:415DH         LINE#         2322
  C:415DH         LINE#         2323
  C:4162H         LINE#         2324
  C:41A2H         LINE#         2325
  C:41A8H         LINE#         2326
  C:41B8H         LINE#         2327
  C:41BBH         LINE#         2328
  C:41C3H         LINE#         2329
  C:41D1H         LINE#         2330
  C:41D6H         LINE#         2331
  C:41D6H         LINE#         2332
  C:41DFH         LINE#         2333
  C:41E5H         LINE#         2334
  C:41F5H         LINE#         2335
  C:41F8H         LINE#         2336
  C:4206H         LINE#         2337
  C:420EH         LINE#         2338
  C:421FH         LINE#         2339
  C:421FH         LINE#         2340
  C:4226H         LINE#         2341
BL51 BANKED LINKER/LOCATER V6.22.2.0                                                  06/01/2023  21:05:43  PAGE 70


  C:423AH         LINE#         2343
  C:424FH         LINE#         2344
  C:4257H         LINE#         2345
  C:4260H         LINE#         2346
  C:426BH         LINE#         2347
  C:426EH         LINE#         2348
  C:4276H         LINE#         2349
  C:427CH         LINE#         2350
  C:428EH         LINE#         2351
  C:428EH         LINE#         2352
  C:42BAH         LINE#         2353
  C:42C6H         LINE#         2354
  C:42CCH         LINE#         2355
  C:42DAH         LINE#         2356
  C:42DDH         LINE#         2357
  C:42E5H         LINE#         2358
  C:42FBH         LINE#         2359
  C:4304H         LINE#         2360
  C:430FH         LINE#         2361
  C:4315H         LINE#         2362
  C:4327H         LINE#         2363
  C:4327H         LINE#         2364
  C:4353H         LINE#         2365
  C:435FH         LINE#         2366
  C:4365H         LINE#         2367
  C:4373H         LINE#         2368
  C:4376H         LINE#         2369
  C:437EH         LINE#         2370
  C:4394H         LINE#         2371
  C:439DH         LINE#         2372
  C:43A8H         LINE#         2373
  C:43ABH         LINE#         2374
  C:43B1H         LINE#         2375
  C:43B7H         LINE#         2376
  C:43B7H         LINE#         2377
  C:43CBH         LINE#         2378
  C:43CBH         LINE#         2379
  C:43D0H         LINE#         2380
  C:4418H         LINE#         2382
  C:445DH         LINE#         2383
  C:44ABH         LINE#         2384
  C:44B4H         LINE#         2385
  C:44BAH         LINE#         2386
  C:44C8H         LINE#         2387
  C:44CBH         LINE#         2388
  C:44D3H         LINE#         2389
  C:44F5H         LINE#         2390
  C:44FEH         LINE#         2391
  C:4509H         LINE#         2392
  C:450CH         LINE#         2393
  C:4512H         LINE#         2394
  C:4518H         LINE#         2395
  C:4518H         LINE#         2396
  C:452CH         LINE#         2397
  C:452CH         LINE#         2398
  C:4532H         LINE#         2399
  C:4579H         LINE#         2401
BL51 BANKED LINKER/LOCATER V6.22.2.0                                                  06/01/2023  21:05:43  PAGE 71


  C:45BEH         LINE#         2402
  C:460CH         LINE#         2403
  C:4615H         LINE#         2404
  C:461BH         LINE#         2405
  C:4629H         LINE#         2406
  C:462CH         LINE#         2407
  C:4633H         LINE#         2408
  C:4655H         LINE#         2409
  C:465BH         LINE#         2410
  C:4666H         LINE#         2411
  C:4669H         LINE#         2412
  C:4671H         LINE#         2413
  -------         ENDPROC       FLASH_23
  -------         PROC          FLASH_24
  -------         DO            
  X:0230H         SYMBOL        i
  X:0231H         SYMBOL        v
  X:0232H         SYMBOL        a
  -------         ENDDO         
  C:BD94H         LINE#         2415
  C:BD94H         LINE#         2416
  C:BD94H         LINE#         2417
  C:BDADH         LINE#         2418
  C:BDBCH         LINE#         2419
  C:BDD1H         LINE#         2420
  C:BDD6H         LINE#         2421
  C:BDD6H         LINE#         2422
  C:BDE9H         LINE#         2423
  C:BDEFH         LINE#         2424
  C:BDFDH         LINE#         2425
  C:BE00H         LINE#         2426
  C:BE09H         LINE#         2427
  C:BE15H         LINE#         2428
  -------         ENDPROC       FLASH_24
  -------         PROC          FLASH_25
  -------         DO            
  X:0230H         SYMBOL        a
  X:0270H         SYMBOL        i
  D:0007H         SYMBOL        j
  X:0271H         SYMBOL        num
  X:0272H         SYMBOL        v
  -------         ENDDO         
  C:9EF3H         LINE#         2430
  C:9EF3H         LINE#         2431
  C:9EF3H         LINE#         2432
  C:9F06H         LINE#         2433
  C:9F10H         LINE#         2434
  C:9F1DH         LINE#         2435
  C:9F1DH         LINE#         2436
  C:9F22H         LINE#         2437
  C:9F22H         LINE#         2438
  C:9F25H         LINE#         2440
  C:9F25H         LINE#         2441
  C:9F37H         LINE#         2442
  C:9F51H         LINE#         2443
  C:9F5AH         LINE#         2444
  C:9F68H         LINE#         2445
BL51 BANKED LINKER/LOCATER V6.22.2.0                                                  06/01/2023  21:05:43  PAGE 72


  C:9F6BH         LINE#         2446
  C:9F71H         LINE#         2447
  C:9F71H         LINE#         2448
  C:9F7AH         LINE#         2449
  C:9F7AH         LINE#         2450
  C:9F87H         LINE#         2451
  C:9F8DH         LINE#         2452
  C:9F9BH         LINE#         2453
  C:9F9EH         LINE#         2454
  C:9FACH         LINE#         2455
  C:9FC0H         LINE#         2456
  C:9FC0H         LINE#         2457
  C:9FC9H         LINE#         2458
  C:9FC9H         LINE#         2459
  C:9FD2H         LINE#         2460
  C:9FDBH         LINE#         2461
  C:9FE9H         LINE#         2462
  C:9FECH         LINE#         2463
  C:9FF3H         LINE#         2464
  C:9FFBH         LINE#         2465
  C:9FFBH         LINE#         2466
  C:A000H         LINE#         2467
  C:A000H         LINE#         2468
  C:A005H         LINE#         2469
  C:A005H         LINE#         2470
  C:A007H         LINE#         2472
  C:A007H         LINE#         2473
  C:A01AH         LINE#         2474
  C:A020H         LINE#         2475
  C:A030H         LINE#         2476
  C:A033H         LINE#         2477
  C:A041H         LINE#         2478
  C:A049H         LINE#         2479
  -------         ENDPROC       FLASH_25
  -------         PROC          FLASH_26
  C:CBA1H         LINE#         2481
  C:CBA1H         LINE#         2482
  C:CBA1H         LINE#         2483
  C:CBB2H         LINE#         2484
  C:CBBAH         LINE#         2485
  -------         ENDPROC       FLASH_26
  -------         PROC          FLASH_27
  -------         DO            
  X:0230H         SYMBOL        a
  X:0270H         SYMBOL        i
  X:0271H         SYMBOL        j
  X:0272H         SYMBOL        k
  X:0273H         SYMBOL        v
  -------         ENDDO         
  C:823CH         LINE#         2487
  C:823CH         LINE#         2488
  C:823CH         LINE#         2490
  C:8242H         LINE#         2491
  C:8247H         LINE#         2492
  C:824CH         LINE#         2493
  C:8260H         LINE#         2494
  C:8260H         LINE#         2495
BL51 BANKED LINKER/LOCATER V6.22.2.0                                                  06/01/2023  21:05:43  PAGE 73


  C:8268H         LINE#         2496
  C:82FDH         LINE#         2497
  C:8303H         LINE#         2498
  C:8311H         LINE#         2499
  C:8314H         LINE#         2500
  C:833FH         LINE#         2501
  C:8348H         LINE#         2502
  C:8353H         LINE#         2503
  C:8356H         LINE#         2504
  C:835EH         LINE#         2505
  C:8363H         LINE#         2506
  C:8368H         LINE#         2507
  C:837CH         LINE#         2508
  C:837CH         LINE#         2509
  C:8384H         LINE#         2510
  C:8419H         LINE#         2511
  C:841FH         LINE#         2512
  C:842DH         LINE#         2513
  C:8430H         LINE#         2514
  C:845BH         LINE#         2515
  C:8463H         LINE#         2516
  -------         ENDPROC       FLASH_27
  -------         PROC          FLASH_28
  C:AA02H         LINE#         2518
  C:AA02H         LINE#         2519
  C:AA02H         LINE#         2520
  C:AA14H         LINE#         2521
  C:AA26H         LINE#         2522
  C:AA2FH         LINE#         2523
  C:AA42H         LINE#         2524
  C:AA55H         LINE#         2525
  C:AA68H         LINE#         2526
  C:AA7BH         LINE#         2527
  C:AA8EH         LINE#         2528
  C:AAA1H         LINE#         2529
  C:AABBH         LINE#         2530
  C:AAD3H         LINE#         2531
  C:AAEDH         LINE#         2532
  C:AB05H         LINE#         2533
  C:AB1EH         LINE#         2534
  C:AB26H         LINE#         2535
  -------         ENDPROC       FLASH_28
  -------         PROC          FLASH_30
  -------         DO            
  X:0230H         SYMBOL        i
  -------         ENDDO         
  C:C62DH         LINE#         2538
  C:C62DH         LINE#         2539
  C:C62DH         LINE#         2541
  C:C63EH         LINE#         2542
  C:C63EH         LINE#         2543
  C:C65BH         LINE#         2544
  C:C664H         LINE#         2545
  C:C66CH         LINE#         2546
  -------         ENDPROC       FLASH_30
  -------         PROC          FLASH_31
  C:C888H         LINE#         2548
BL51 BANKED LINKER/LOCATER V6.22.2.0                                                  06/01/2023  21:05:43  PAGE 74


  C:C888H         LINE#         2549
  C:C888H         LINE#         2550
  C:C88DH         LINE#         2551
  C:C894H         LINE#         2552
  C:C8A5H         LINE#         2553
  C:C8AAH         LINE#         2554
  C:C8B1H         LINE#         2555
  C:C8B9H         LINE#         2556
  -------         ENDPROC       FLASH_31
  -------         PROC          FLASH_32
  C:CA96H         LINE#         2558
  C:CA96H         LINE#         2559
  C:CA96H         LINE#         2560
  C:CA9BH         LINE#         2561
  C:CAA4H         LINE#         2562
  C:CAADH         LINE#         2563
  C:CAB5H         LINE#         2564
  -------         ENDPROC       FLASH_32
  -------         PROC          FLASH_33
  C:CC21H         LINE#         2566
  C:CC21H         LINE#         2567
  C:CC21H         LINE#         2568
  C:CC28H         LINE#         2569
  C:CC30H         LINE#         2570
  -------         ENDPROC       FLASH_33
  -------         PROC          FLASH_34
  C:CB6CH         LINE#         2572
  C:CB6CH         LINE#         2573
  C:CB6CH         LINE#         2574
  C:CB75H         LINE#         2575
  C:CB7EH         LINE#         2576
  C:CB86H         LINE#         2577
  -------         ENDPROC       FLASH_34
  -------         PROC          FLASH_35
  C:CC31H         LINE#         2579
  C:CC31H         LINE#         2580
  C:CC31H         LINE#         2581
  C:CC38H         LINE#         2582
  C:CC40H         LINE#         2583
  -------         ENDPROC       FLASH_35
  -------         PROC          FLASH_36
  C:C5ABH         LINE#         2585
  C:C5ABH         LINE#         2586
  C:C5ABH         LINE#         2587
  C:C5C0H         LINE#         2588
  C:C5C3H         LINE#         2589
  C:C5C8H         LINE#         2590
  C:C5D6H         LINE#         2591
  C:C5E4H         LINE#         2592
  C:C5ECH         LINE#         2593
  -------         ENDPROC       FLASH_36
  -------         PROC          FLASH_37
  C:CC85H         LINE#         2595
  C:CC85H         LINE#         2596
  C:CC85H         LINE#         2597
  C:CC88H         LINE#         2598
  C:CC90H         LINE#         2599
BL51 BANKED LINKER/LOCATER V6.22.2.0                                                  06/01/2023  21:05:43  PAGE 75


  -------         ENDPROC       FLASH_37
  -------         PROC          FLASH_38
  C:CC50H         LINE#         2601
  C:CC50H         LINE#         2602
  C:CC50H         LINE#         2603
  C:CC55H         LINE#         2604
  C:CC5DH         LINE#         2605
  -------         ENDPROC       FLASH_38
  -------         PROC          FLASH_39
  -------         DO            
  X:0230H         SYMBOL        i
  X:0231H         SYMBOL        j
  -------         ENDDO         
  C:BFF8H         LINE#         2607
  C:BFF8H         LINE#         2608
  C:BFF8H         LINE#         2610
  C:BFFDH         LINE#         2611
  C:C00EH         LINE#         2612
  C:C02BH         LINE#         2613
  C:C030H         LINE#         2614
  C:C041H         LINE#         2615
  C:C05EH         LINE#         2616
  C:C066H         LINE#         2617
  -------         ENDPROC       FLASH_39
  -------         PROC          FLASH_40
  C:CB14H         LINE#         2619
  C:CB14H         LINE#         2620
  C:CB14H         LINE#         2621
  C:CB29H         LINE#         2622
  C:CB31H         LINE#         2623
  -------         ENDPROC       FLASH_40
  -------         PROC          FLASH_41
  -------         DO            
  X:0230H         SYMBOL        i
  -------         ENDDO         
  C:C9E5H         LINE#         2625
  C:C9E5H         LINE#         2626
  C:C9E5H         LINE#         2628
  C:C9F7H         LINE#         2629
  C:CA02H         LINE#         2630
  C:CA0AH         LINE#         2631
  -------         ENDPROC       FLASH_41
  -------         PROC          FLASH_42
  C:CC5EH         LINE#         2633
  C:CC5EH         LINE#         2634
  C:CC5EH         LINE#         2635
  C:CC63H         LINE#         2636
  C:CC6BH         LINE#         2637
  -------         ENDPROC       FLASH_42
  -------         PROC          _TYPE1
  D:0007H         SYMBOL        cha
  D:0005H         SYMBOL        y
  -------         DO            
  D:0006H         SYMBOL        xx
  -------         ENDDO         
  C:C7A2H         LINE#         2639
  C:C7A2H         LINE#         2640
BL51 BANKED LINKER/LOCATER V6.22.2.0                                                  06/01/2023  21:05:43  PAGE 76


  C:C7A2H         LINE#         2642
  C:C7A4H         LINE#         2643
  C:C7A4H         LINE#         2644
  C:C7D8H         LINE#         2645
  C:C7DDH         LINE#         2646
  -------         ENDPROC       _TYPE1
  -------         PROC          _TRANOUTCHAR_CU1
  X:0231H         SYMBOL        c
  X:0232H         SYMBOL        speed
  -------         DO            
  X:0234H         SYMBOL        i
  D:0004H         SYMBOL        j
  D:0007H         SYMBOL        k
  X:0235H         SYMBOL        a
  X:0236H         SYMBOL        i2
  -------         ENDDO         
  C:A40BH         LINE#         2647
  C:A416H         LINE#         2648
  C:A416H         LINE#         2649
  C:A41BH         LINE#         2650
  C:A42CH         LINE#         2651
  C:A42CH         LINE#         2652
  C:A432H         LINE#         2653
  C:A44BH         LINE#         2654
  C:A466H         LINE#         2655
  C:A46BH         LINE#         2656
  C:A474H         LINE#         2657
  C:A480H         LINE#         2658
  C:A480H         LINE#         2659
  C:A494H         LINE#         2660
  C:A497H         LINE#         2661
  C:A499H         LINE#         2662
  C:A499H         LINE#         2663
  C:A4D9H         LINE#         2664
  C:A519H         LINE#         2665
  C:A522H         LINE#         2666
  C:A52DH         LINE#         2667
  C:A539H         LINE#         2668
  C:A542H         LINE#         2669
  -------         ENDPROC       _TRANOUTCHAR_CU1
  -------         PROC          FLASH_43
  -------         DO            
  X:0230H         SYMBOL        i
  -------         ENDDO         
  C:C4CDH         LINE#         2672
  C:C4CDH         LINE#         2673
  C:C4CDH         LINE#         2675
  C:C4E4H         LINE#         2676
  C:C4E4H         LINE#         2677
  C:C4E9H         LINE#         2678
  C:C4F3H         LINE#         2679
  C:C4FAH         LINE#         2680
  C:C501H         LINE#         2681
  C:C516H         LINE#         2682
  C:C51EH         LINE#         2683
  -------         ENDPROC       FLASH_43
  -------         PROC          FLASH_44
BL51 BANKED LINKER/LOCATER V6.22.2.0                                                  06/01/2023  21:05:43  PAGE 77


  -------         DO            
  X:0230H         SYMBOL        i
  -------         ENDDO         
  C:C3D4H         LINE#         2685
  C:C3D4H         LINE#         2686
  C:C3D4H         LINE#         2688
  C:C3ECH         LINE#         2689
  C:C3ECH         LINE#         2690
  C:C3F3H         LINE#         2691
  C:C3FAH         LINE#         2692
  C:C401H         LINE#         2693
  C:C41FH         LINE#         2694
  C:C427H         LINE#         2695
  -------         ENDPROC       FLASH_44
  -------         PROC          IRINIT
  C:CC91H         LINE#         12
  C:CC91H         LINE#         13
  C:CC91H         LINE#         14
  C:CC93H         LINE#         15
  C:CC96H         LINE#         16
  C:CC98H         LINE#         17
  C:CC9AH         LINE#         19
  -------         ENDPROC       IRINIT
  -------         PROC          _IRDELAY
  D:0007H         SYMBOL        x
  -------         DO            
  D:0005H         SYMBOL        a
  D:0006H         SYMBOL        b
  -------         ENDDO         
  C:CBD2H         LINE#         20
  C:CBD2H         LINE#         21
  C:CBD2H         LINE#         23
  C:CBD8H         LINE#         24
  C:CBD8H         LINE#         25
  C:CBE0H         LINE#         26
  C:CBE7H         LINE#         27
  C:CBE7H         LINE#         28
  -------         ENDPROC       _IRDELAY
  -------         PROC          _IDELAY
  D:0006H         SYMBOL        t
  C:CC9BH         LINE#         29
  C:CC9BH         LINE#         30
  C:CC9BH         LINE#         31
  C:CCA4H         LINE#         32
  -------         ENDPROC       _IDELAY
  -------         PROC          IR_IN
  -------         DO            
  D:0003H         SYMBOL        j
  D:0002H         SYMBOL        k
  D:0004H         SYMBOL        N
  -------         ENDDO         
  C:75E7H         LINE#         34
  C:7604H         LINE#         36
  C:7606H         LINE#         37
  C:7608H         LINE#         38
  C:760DH         LINE#         39
  C:7610H         LINE#         40
BL51 BANKED LINKER/LOCATER V6.22.2.0                                                  06/01/2023  21:05:43  PAGE 78


  C:7610H         LINE#         41
  C:7615H         LINE#         43
  C:7615H         LINE#         45
  C:7618H         LINE#         46
  C:761FH         LINE#         48
  C:7621H         LINE#         49
  C:7621H         LINE#         50
  C:7623H         LINE#         51
  C:7623H         LINE#         52
  C:7626H         LINE#         53
  C:762DH         LINE#         54
  C:7630H         LINE#         55
  C:7637H         LINE#         56
  C:763AH         LINE#         57
  C:763AH         LINE#         58
  C:763FH         LINE#         59
  C:7640H         LINE#         60
  C:7646H         LINE#         61
  C:764BH         LINE#         62
  C:764BH         LINE#         63
  C:764BH         LINE#         64
  C:7659H         LINE#         65
  C:766DH         LINE#         66
  C:766FH         LINE#         67
  C:7674H         LINE#         68
  C:7679H         LINE#         70
  C:7687H         LINE#         71
  C:7687H         LINE#         72
  C:768CH         LINE#         74
  C:768CH         LINE#         76
  C:7693H         LINE#         77
  C:769EH         LINE#         79
  C:76A7H         LINE#         80
  C:76ADH         LINE#         82
  C:76B4H         LINE#         84
  C:76BDH         LINE#         85
  C:76C3H         LINE#         87
  C:76CAH         LINE#         90
  C:76D2H         LINE#         91
  C:76D2H         LINE#         92
  C:76D4H         LINE#         93
  C:76D7H         LINE#         94
  C:76DAH         LINE#         95
  C:76DCH         LINE#         96
  C:76DFH         LINE#         97
  C:76E2H         LINE#         98
  C:76E2H         LINE#         100
  C:76E6H         LINE#         101
  C:76E6H         LINE#         102
  C:76E9H         LINE#         103
  C:76ECH         LINE#         104
  C:76EEH         LINE#         105
  C:76F1H         LINE#         106
  C:76F4H         LINE#         107
  C:76F4H         LINE#         108
  C:76F8H         LINE#         109
  C:76F8H         LINE#         110
BL51 BANKED LINKER/LOCATER V6.22.2.0                                                  06/01/2023  21:05:43  PAGE 79


  C:76FBH         LINE#         111
  C:76FEH         LINE#         112
  C:76FEH         LINE#         114
  C:7702H         LINE#         115
  C:7702H         LINE#         116
  C:7705H         LINE#         117
  C:7705H         LINE#         119
  C:770DH         LINE#         120
  C:770DH         LINE#         121
  C:7710H         LINE#         122
  C:7713H         LINE#         123
  C:7716H         LINE#         124
  C:7718H         LINE#         125
  C:771BH         LINE#         126
  C:771BH         LINE#         127
  C:771FH         LINE#         128
  C:771FH         LINE#         129
  C:772DH         LINE#         130
  C:774CH         LINE#         131
  C:774CH         LINE#         132
  C:774CH         LINE#         133
  C:774CH         LINE#         135
  C:774CH         LINE#         136
  C:7753H         LINE#         137
  C:7753H         LINE#         138
  C:7761H         LINE#         139
  C:7780H         LINE#         140
  C:7780H         LINE#         142
  C:7787H         LINE#         143
  C:7787H         LINE#         144
  C:778AH         LINE#         145
  C:778AH         LINE#         149
  C:7792H         LINE#         150
  C:7792H         LINE#         151
  C:7797H         LINE#         152
  C:7797H         LINE#         153
  C:779EH         LINE#         154
  C:77ACH         LINE#         155
  C:77ACH         LINE#         156
  C:77AFH         LINE#         157
  C:77AFH         LINE#         158
  C:77AFH         LINE#         159
  C:77AFH         LINE#         160
  C:77B3H         LINE#         161
  C:77B3H         LINE#         162
  C:77B8H         LINE#         163
  C:77B8H         LINE#         164
  C:77BDH         LINE#         165
  C:77BDH         LINE#         166
  C:77BDH         LINE#         167
  C:77C1H         LINE#         168
  C:77C1H         LINE#         169
  C:77C6H         LINE#         170
  C:77C6H         LINE#         171
  C:77CDH         LINE#         172
  C:77D4H         LINE#         173
  C:77D4H         LINE#         174
BL51 BANKED LINKER/LOCATER V6.22.2.0                                                  06/01/2023  21:05:43  PAGE 80


  C:77D7H         LINE#         175
  C:77D7H         LINE#         176
  C:77D7H         LINE#         177
  C:77D7H         LINE#         178
  C:77DBH         LINE#         179
  C:77DBH         LINE#         180
  C:77E2H         LINE#         181
  C:77F0H         LINE#         182
  C:77F0H         LINE#         183
  C:77F3H         LINE#         184
  C:77F3H         LINE#         185
  C:77F3H         LINE#         186
  C:77F7H         LINE#         187
  C:77F7H         LINE#         188
  C:77FCH         LINE#         189
  C:77FCH         LINE#         190
  C:7800H         LINE#         191
  C:7800H         LINE#         192
  C:7807H         LINE#         193
  C:780EH         LINE#         194
  C:780EH         LINE#         195
  C:7811H         LINE#         196
  C:7811H         LINE#         197
  C:7811H         LINE#         198
  C:7815H         LINE#         199
  C:7815H         LINE#         200
  C:781AH         LINE#         201
  C:781AH         LINE#         202
  C:7821H         LINE#         203
  C:782FH         LINE#         204
  C:782FH         LINE#         205
  C:7832H         LINE#         206
  C:7832H         LINE#         207
  C:7832H         LINE#         208
  C:7832H         LINE#         209
  C:7836H         LINE#         210
  C:7836H         LINE#         211
  C:783BH         LINE#         212
  C:783BH         LINE#         213
  C:7840H         LINE#         214
  C:7840H         LINE#         215
  C:7840H         LINE#         216
  C:7844H         LINE#         217
  C:7844H         LINE#         218
  C:7849H         LINE#         219
  C:7849H         LINE#         220
  C:7850H         LINE#         221
  C:7857H         LINE#         222
  C:7857H         LINE#         223
  C:785AH         LINE#         224
  C:785AH         LINE#         225
  C:785AH         LINE#         226
  C:785AH         LINE#         227
  C:785CH         LINE#         228
  -------         ENDPROC       IR_IN
  -------         PROC          KEY_BAIHEI_SCAN
  C:C0D4H         LINE#         6
BL51 BANKED LINKER/LOCATER V6.22.2.0                                                  06/01/2023  21:05:43  PAGE 81


  C:C0D4H         LINE#         7
  C:C0D4H         LINE#         8
  C:C0D7H         LINE#         9
  C:C0D7H         LINE#         10
  C:C0DAH         LINE#         11
  C:C0DDH         LINE#         12
  C:C0DDH         LINE#         13
  C:C0E0H         LINE#         14
  C:C0E0H         LINE#         15
  C:C0E2H         LINE#         16
  C:C0F4H         LINE#         17
  C:C0F6H         LINE#         18
  C:C0F8H         LINE#         19
  C:C0FAH         LINE#         20
  C:C0FCH         LINE#         21
  C:C101H         LINE#         22
  C:C101H         LINE#         23
  C:C104H         LINE#         24
  C:C106H         LINE#         25
  C:C108H         LINE#         26
  C:C10BH         LINE#         27
  C:C10BH         LINE#         28
  C:C110H         LINE#         29
  C:C110H         LINE#         30
  C:C113H         LINE#         31
  C:C116H         LINE#         32
  C:C119H         LINE#         33
  C:C11BH         LINE#         34
  C:C11DH         LINE#         35
  C:C120H         LINE#         36
  C:C120H         LINE#         37
  C:C125H         LINE#         38
  C:C125H         LINE#         39
  C:C128H         LINE#         40
  C:C12BH         LINE#         41
  C:C12BH         LINE#         42
  C:C130H         LINE#         43
  C:C130H         LINE#         44
  C:C133H         LINE#         45
  C:C135H         LINE#         46
  C:C138H         LINE#         47
  C:C13AH         LINE#         48
  C:C13DH         LINE#         49
  C:C13FH         LINE#         50
  C:C13FH         LINE#         51
  C:C13FH         LINE#         52
  C:C13FH         LINE#         53
  -------         ENDPROC       KEY_BAIHEI_SCAN
  C:C66DH         SYMBOL        L?2735
  -------         PROC          L?2734
  -------         ENDPROC       L?2734
  C:C66DH         SYMBOL        L?2735
  -------         PROC          YINYUE_KEY2
  C:C671H         LINE#         56
  C:C671H         LINE#         57
  C:C671H         LINE#         58
  C:C689H         LINE#         59
BL51 BANKED LINKER/LOCATER V6.22.2.0                                                  06/01/2023  21:05:43  PAGE 82


  C:C689H         LINE#         60
  C:C68EH         LINE#         61
  C:C68EH         LINE#         62
  C:C692H         LINE#         64
  C:C692H         LINE#         66
  C:C692H         LINE#         67
  C:C697H         LINE#         68
  C:C697H         LINE#         69
  C:C69BH         LINE#         71
  C:C69BH         LINE#         72
  C:C6A0H         LINE#         73
  C:C6A0H         LINE#         74
  C:C6A4H         LINE#         76
  C:C6A4H         LINE#         77
  C:C6A9H         LINE#         78
  C:C6A9H         LINE#         79
  C:C6ACH         LINE#         81
  C:C6ACH         LINE#         82
  C:C6ACH         LINE#         83
  C:C6ACH         LINE#         85
  C:C6ACH         LINE#         87
  C:C6ACH         LINE#         88
  -------         ENDPROC       YINYUE_KEY2
  -------         PROC          DONGHUA_KEY2
  C:C7DEH         LINE#         90
  C:C7DEH         LINE#         91
  C:C7DEH         LINE#         92
  C:C7F6H         LINE#         93
  C:C7F6H         LINE#         94
  C:C7FBH         LINE#         95
  C:C7FBH         LINE#         96
  C:C7FFH         LINE#         97
  C:C7FFH         LINE#         99
  C:C7FFH         LINE#         100
  C:C804H         LINE#         101
  C:C804H         LINE#         102
  C:C808H         LINE#         103
  C:C808H         LINE#         104
  C:C80DH         LINE#         105
  C:C80DH         LINE#         106
  C:C811H         LINE#         108
  C:C811H         LINE#         109
  C:C816H         LINE#         110
  C:C816H         LINE#         111
  C:C819H         LINE#         113
  C:C819H         LINE#         114
  C:C819H         LINE#         115
  C:C819H         LINE#         117
  C:C819H         LINE#         119
  C:C819H         LINE#         120
  -------         ENDPROC       DONGHUA_KEY2
  -------         PROC          GAIZI_KEY2
  C:C81AH         LINE#         122
  C:C81AH         LINE#         123
  C:C81AH         LINE#         124
  C:C832H         LINE#         125
  C:C832H         LINE#         126
BL51 BANKED LINKER/LOCATER V6.22.2.0                                                  06/01/2023  21:05:43  PAGE 83


  C:C837H         LINE#         127
  C:C837H         LINE#         128
  C:C83BH         LINE#         129
  C:C83BH         LINE#         131
  C:C83BH         LINE#         132
  C:C840H         LINE#         133
  C:C840H         LINE#         134
  C:C844H         LINE#         135
  C:C844H         LINE#         136
  C:C849H         LINE#         137
  C:C849H         LINE#         138
  C:C84DH         LINE#         140
  C:C84DH         LINE#         141
  C:C852H         LINE#         142
  C:C852H         LINE#         143
  C:C855H         LINE#         145
  C:C855H         LINE#         146
  C:C855H         LINE#         147
  C:C855H         LINE#         149
  C:C855H         LINE#         151
  C:C855H         LINE#         152
  -------         ENDPROC       GAIZI_KEY2
  -------         PROC          _DELAYYP
  D:0006H         SYMBOL        n1
  -------         DO            
  D:0004H         SYMBOL        i
  -------         ENDDO         
  C:CB32H         LINE#         10
  C:CB32H         LINE#         11
  C:CB32H         LINE#         13
  C:CB3CH         LINE#         14
  C:CB4FH         LINE#         15
  -------         ENDPROC       _DELAYYP
  -------         PROC          READ_ADC0
  C:CAD6H         LINE#         17
  C:CAD6H         LINE#         18
  C:CAD6H         LINE#         19
  C:CAD9H         LINE#         20
  C:CADAH         LINE#         21
  C:CADBH         LINE#         22
  C:CADCH         LINE#         23
  C:CADDH         LINE#         24
  C:CAE2H         LINE#         25
  C:CAE5H         LINE#         26
  C:CAF4H         LINE#         27
  -------         ENDPROC       READ_ADC0
  C:C26CH         SYMBOL        L?2726
  -------         PROC          L?2725
  -------         ENDPROC       L?2725
  C:C26CH         SYMBOL        L?2726
  -------         PROC          _VOIVOL
  X:023BH         SYMBOL        n
  -------         DO            
  X:023DH         SYMBOL        val
  D:0006H         SYMBOL        result
  X:023FH         SYMBOL        rel
  -------         ENDDO         
BL51 BANKED LINKER/LOCATER V6.22.2.0                                                  06/01/2023  21:05:43  PAGE 84


  C:C270H         LINE#         28
  C:C278H         LINE#         29
  C:C278H         LINE#         30
  C:C27FH         LINE#         31
  C:C289H         LINE#         32
  C:C289H         LINE#         33
  C:C294H         LINE#         34
  C:C29BH         LINE#         35
  C:C2A3H         LINE#         36
  C:C2AFH         LINE#         37
  C:C2BDH         LINE#         38
  C:C2BFH         LINE#         39
  C:C2C7H         LINE#         40
  -------         ENDPROC       _VOIVOL
  -------         PROC          _VOL_WATCH_0
  X:0230H         SYMBOL        kxg
  -------         DO            
  X:0231H         SYMBOL        result
  X:0233H         SYMBOL        l
  X:0235H         SYMBOL        n
  -------         ENDDO         
  C:7877H         LINE#         42
  C:787CH         LINE#         43
  C:787CH         LINE#         44
  C:788BH         LINE#         45
  C:789AH         LINE#         46
  C:78A7H         LINE#         47
  C:78B4H         LINE#         48
  C:78B4H         LINE#         49
  C:78D3H         LINE#         50
  C:78DDH         LINE#         52
  C:78E6H         LINE#         53
  C:78F4H         LINE#         54
  C:7903H         LINE#         55
  C:7909H         LINE#         57
  C:7911H         LINE#         58
  C:7911H         LINE#         59
  C:792BH         LINE#         60
  C:7936H         LINE#         61
  C:794DH         LINE#         62
  C:794DH         LINE#         63
  C:7955H         LINE#         64
  C:7955H         LINE#         65
  C:7976H         LINE#         66
  C:7981H         LINE#         67
  C:79A1H         LINE#         68
  C:79A1H         LINE#         69
  C:79A9H         LINE#         70
  C:79C7H         LINE#         71
  C:79D2H         LINE#         72
  C:79EDH         LINE#         73
  C:79EDH         LINE#         74
  C:79F5H         LINE#         75
  C:79F5H         LINE#         76
  C:7A12H         LINE#         77
  C:7A1DH         LINE#         78
  C:7A43H         LINE#         79
BL51 BANKED LINKER/LOCATER V6.22.2.0                                                  06/01/2023  21:05:43  PAGE 85


  C:7A43H         LINE#         80
  C:7A4BH         LINE#         81
  C:7A4BH         LINE#         82
  C:7A6CH         LINE#         83
  C:7A77H         LINE#         84
  C:7A96H         LINE#         85
  C:7A96H         LINE#         86
  C:7A9EH         LINE#         87
  C:7A9EH         LINE#         88
  C:7ABCH         LINE#         89
  C:7AC7H         LINE#         90
  C:7AE2H         LINE#         91
  C:7AE2H         LINE#         92
  C:7AECH         LINE#         93
  C:7AEFH         LINE#         94
  C:7AF4H         LINE#         95
  C:7AFDH         LINE#         96
  C:7AFDH         LINE#         97
  C:7AFFH         LINE#         98
  C:7AFFH         LINE#         99
  C:7AFFH         LINE#         100
  C:7AFFH         LINE#         101
  -------         ENDPROC       _VOL_WATCH_0
  -------         PROC          _VOL_WATCH_1
  X:0230H         SYMBOL        kxg1
  -------         DO            
  X:0231H         SYMBOL        result
  X:0233H         SYMBOL        l
  X:0235H         SYMBOL        n
  X:0237H         SYMBOL        saa
  X:0239H         SYMBOL        sad
  C:2B8FH         SYMBOL        disxin
  -------         ENDDO         
  C:5099H         LINE#         103
  C:509EH         LINE#         104
  C:509EH         LINE#         105
  C:50ABH         LINE#         116
  C:50BAH         LINE#         117
  C:50C7H         LINE#         118
  C:50D4H         LINE#         119
  C:50D4H         LINE#         120
  C:50F3H         LINE#         121
  C:50FDH         LINE#         123
  C:5106H         LINE#         124
  C:5114H         LINE#         125
  C:5123H         LINE#         126
  C:5129H         LINE#         127
  C:5131H         LINE#         128
  C:5131H         LINE#         129
  C:514DH         LINE#         130
  C:515CH         LINE#         131
  C:515FH         LINE#         132
  C:516AH         LINE#         133
  C:516AH         LINE#         134
  C:5172H         LINE#         135
  C:5172H         LINE#         136
  C:5192H         LINE#         137
BL51 BANKED LINKER/LOCATER V6.22.2.0                                                  06/01/2023  21:05:43  PAGE 86


  C:51A1H         LINE#         138
  C:51C3H         LINE#         139
  C:51CEH         LINE#         140
  C:51CEH         LINE#         141
  C:51D6H         LINE#         142
  C:51D6H         LINE#         143
  C:51F6H         LINE#         144
  C:5205H         LINE#         145
  C:5227H         LINE#         146
  C:5232H         LINE#         147
  C:5232H         LINE#         148
  C:523AH         LINE#         149
  C:523AH         LINE#         150
  C:5258H         LINE#         151
  C:5267H         LINE#         152
  C:5287H         LINE#         153
  C:5292H         LINE#         154
  C:5292H         LINE#         155
  C:529DH         LINE#         156
  C:529DH         LINE#         157
  C:52BAH         LINE#         158
  C:52D6H         LINE#         159
  C:52F6H         LINE#         160
  C:5317H         LINE#         161
  C:5338H         LINE#         162
  C:534AH         LINE#         163
  C:534AH         LINE#         164
  C:536AH         LINE#         165
  C:536DH         LINE#         166
  C:538FH         LINE#         167
  C:53B2H         LINE#         168
  C:53D5H         LINE#         169
  C:53D5H         LINE#         170
  C:53E0H         LINE#         171
  C:53E0H         LINE#         173
  C:53F1H         LINE#         174
  C:53F1H         LINE#         175
  C:53F8H         LINE#         176
  C:53F8H         LINE#         177
  C:540FH         LINE#         178
  C:540FH         LINE#         179
  C:5468H         LINE#         180
  C:5478H         LINE#         181
  C:5495H         LINE#         182
  C:549DH         LINE#         183
  C:549DH         LINE#         184
  C:54B9H         LINE#         185
  C:54C8H         LINE#         186
  C:54CBH         LINE#         187
  C:54CBH         LINE#         188
  C:54D3H         LINE#         189
  C:54D3H         LINE#         190
  C:54F3H         LINE#         191
  C:5502H         LINE#         192
  C:5524H         LINE#         193
  C:5524H         LINE#         194
  C:552FH         LINE#         195
BL51 BANKED LINKER/LOCATER V6.22.2.0                                                  06/01/2023  21:05:43  PAGE 87


  C:552FH         LINE#         196
  C:5539H         LINE#         197
  C:553CH         LINE#         198
  C:5541H         LINE#         199
  C:554AH         LINE#         200
  C:554AH         LINE#         201
  C:554CH         LINE#         202
  C:554CH         LINE#         203
  C:554CH         LINE#         204
  C:554CH         LINE#         205
  -------         ENDPROC       _VOL_WATCH_1
  -------         PROC          VOL_WATCH_2
  -------         DO            
  X:0230H         SYMBOL        result
  X:0232H         SYMBOL        l
  X:0234H         SYMBOL        n
  -------         ENDDO         
  C:8F9BH         LINE#         207
  C:8F9BH         LINE#         208
  C:8F9BH         LINE#         209
  C:8FAAH         LINE#         210
  C:8FB9H         LINE#         211
  C:8FC6H         LINE#         212
  C:8FD3H         LINE#         213
  C:8FD3H         LINE#         214
  C:8FF2H         LINE#         215
  C:8FFCH         LINE#         217
  C:9005H         LINE#         218
  C:9013H         LINE#         219
  C:9022H         LINE#         220
  C:9028H         LINE#         221
  C:902DH         LINE#         222
  C:9060H         LINE#         223
  C:9060H         LINE#         224
  C:9072H         LINE#         225
  C:908BH         LINE#         226
  C:90A3H         LINE#         227
  C:90BBH         LINE#         228
  C:90D0H         LINE#         229
  C:90E5H         LINE#         230
  C:90FBH         LINE#         231
  C:9112H         LINE#         232
  C:9112H         LINE#         233
  C:911DH         LINE#         234
  C:9127H         LINE#         235
  C:912AH         LINE#         236
  C:912FH         LINE#         237
  C:9138H         LINE#         238
  C:9138H         LINE#         239
  C:913AH         LINE#         240
  C:913AH         LINE#         241
  C:913AH         LINE#         242
  C:913AH         LINE#         243
  -------         ENDPROC       VOL_WATCH_2
  -------         PROC          VOL_WATCH_3
  -------         DO            
  D:0006H         SYMBOL        result
BL51 BANKED LINKER/LOCATER V6.22.2.0                                                  06/01/2023  21:05:43  PAGE 88


  X:0230H         SYMBOL        l
  X:0232H         SYMBOL        n
  -------         ENDDO         
  C:BB3FH         LINE#         245
  C:BB3FH         LINE#         246
  C:BB3FH         LINE#         247
  C:BB46H         LINE#         248
  C:BB55H         LINE#         249
  C:BB62H         LINE#         250
  C:BB6CH         LINE#         251
  C:BB6CH         LINE#         252
  C:BB73H         LINE#         253
  C:BB86H         LINE#         254
  C:BB8EH         LINE#         255
  C:BB97H         LINE#         256
  C:BB9AH         LINE#         257
  C:BBB9H         LINE#         258
  C:BBC0H         LINE#         259
  C:BBCAH         LINE#         260
  C:BBCDH         LINE#         261
  C:BBD2H         LINE#         262
  C:BBD8H         LINE#         263
  C:BBD8H         LINE#         264
  C:BBDAH         LINE#         265
  C:BBDAH         LINE#         266
  C:BBDAH         LINE#         267
  C:BBDAH         LINE#         268
  -------         ENDPROC       VOL_WATCH_3
  -------         PROC          L?2736
  -------         ENDPROC       L?2736
  -------         PROC          _DELAYPWM
  D:0006H         SYMBOL        tpwm
  C:CC05H         LINE#         8
  C:CC05H         LINE#         9
  C:CC05H         LINE#         10
  C:CC0EH         LINE#         11
  -------         ENDPROC       _DELAYPWM
  -------         PROC          PWM_LED
  -------         DO            
  X:0230H         SYMBOL        CYCLE
  D:0004H         SYMBOL        PWM_LOW
  X:0232H         SYMBOL        xhs
  -------         ENDDO         
  C:BC72H         LINE#         13
  C:BC72H         LINE#         14
  C:BC72H         LINE#         15
  C:BC83H         LINE#         16
  C:BC85H         LINE#         17
  C:BC8EH         LINE#         18
  C:BC8EH         LINE#         19
  C:BC9CH         LINE#         20
  C:BC9EH         LINE#         21
  C:BCA5H         LINE#         22
  C:BCB4H         LINE#         23
  C:BCB4H         LINE#         24
  C:BCB6H         LINE#         25
  C:BCBDH         LINE#         26
BL51 BANKED LINKER/LOCATER V6.22.2.0                                                  06/01/2023  21:05:43  PAGE 89


  C:BCBFH         LINE#         27
  C:BCC3H         LINE#         28
  C:BCCAH         LINE#         29
  C:BCE1H         LINE#         30
  C:BCE1H         LINE#         31
  C:BCE3H         LINE#         32
  C:BCEAH         LINE#         33
  C:BCECH         LINE#         34
  C:BCF2H         LINE#         35
  C:BCF9H         LINE#         36
  C:BD07H         LINE#         37
  C:BD07H         LINE#         38
  -------         ENDPROC       PWM_LED
  -------         PROC          _TURN_ON
  X:02C5H         SYMBOL        v
  -------         DO            
  X:02C6H         SYMBOL        a
  X:0306H         SYMBOL        i
  D:0007H         SYMBOL        j
  -------         ENDDO         
  C:AF95H         LINE#         40
  C:AF9AH         LINE#         41
  C:AF9AH         LINE#         42
  C:AFADH         LINE#         44
  C:AFB3H         LINE#         45
  C:AFBCH         LINE#         46
  C:AFCAH         LINE#         47
  C:AFCDH         LINE#         48
  C:AFDFH         LINE#         49
  C:AFDFH         LINE#         50
  C:AFFAH         LINE#         51
  C:B000H         LINE#         52
  C:B00EH         LINE#         53
  C:B011H         LINE#         54
  C:B019H         LINE#         55
  C:B01FH         LINE#         56
  C:B01FH         LINE#         57
  C:B021H         LINE#         58
  C:B047H         LINE#         59
  C:B04DH         LINE#         60
  C:B05BH         LINE#         61
  C:B05EH         LINE#         62
  C:B06CH         LINE#         63
  C:B07DH         LINE#         64
  C:B096H         LINE#         65
  C:B09EH         LINE#         66
  -------         ENDPROC       _TURN_ON
  -------         PROC          _H_SCAN
  X:0230H         SYMBOL        v
  -------         DO            
  X:0231H         SYMBOL        b
  X:0271H         SYMBOL        i
  X:0272H         SYMBOL        j
  -------         ENDDO         
  C:A04AH         LINE#         68
  C:A04FH         LINE#         69
  C:A04FH         LINE#         70
BL51 BANKED LINKER/LOCATER V6.22.2.0                                                  06/01/2023  21:05:43  PAGE 90


  C:A062H         LINE#         73
  C:A073H         LINE#         74
  C:A08DH         LINE#         75
  C:A092H         LINE#         76
  C:A092H         LINE#         77
  C:A095H         LINE#         78
  C:A095H         LINE#         79
  C:A0B2H         LINE#         80
  C:A0B2H         LINE#         81
  C:A0B4H         LINE#         83
  C:A0B4H         LINE#         84
  C:A0B4H         LINE#         85
  C:A0C5H         LINE#         86
  C:A0EEH         LINE#         87
  C:A0F4H         LINE#         88
  C:A0FFH         LINE#         89
  C:A10DH         LINE#         90
  C:A112H         LINE#         91
  C:A112H         LINE#         92
  C:A115H         LINE#         93
  C:A115H         LINE#         94
  C:A132H         LINE#         95
  C:A132H         LINE#         96
  C:A136H         LINE#         98
  C:A136H         LINE#         99
  C:A136H         LINE#         100
  C:A147H         LINE#         101
  C:A163H         LINE#         102
  C:A169H         LINE#         103
  C:A177H         LINE#         104
  C:A17AH         LINE#         105
  C:A188H         LINE#         106
  C:A190H         LINE#         107
  -------         ENDPROC       _H_SCAN
  -------         PROC          _V_SCAN
  X:0230H         SYMBOL        v
  -------         DO            
  X:0231H         SYMBOL        a
  X:0271H         SYMBOL        i
  D:0007H         SYMBOL        j
  -------         ENDDO         
  C:AC46H         LINE#         109
  C:AC4BH         LINE#         110
  C:AC4BH         LINE#         111
  C:AC5EH         LINE#         113
  C:AC6FH         LINE#         114
  C:AC89H         LINE#         115
  C:AC8CH         LINE#         116
  C:AC8CH         LINE#         117
  C:ACA9H         LINE#         118
  C:ACA9H         LINE#         119
  C:ACABH         LINE#         121
  C:ACABH         LINE#         122
  C:ACABH         LINE#         123
  C:ACB4H         LINE#         124
  C:ACC2H         LINE#         125
  C:ACC5H         LINE#         126
BL51 BANKED LINKER/LOCATER V6.22.2.0                                                  06/01/2023  21:05:43  PAGE 91


  C:ACCBH         LINE#         127
  C:ACCBH         LINE#         128
  C:ACCEH         LINE#         129
  C:ACCEH         LINE#         130
  C:ACEBH         LINE#         131
  C:ACEBH         LINE#         132
  C:ACEFH         LINE#         134
  C:ACEFH         LINE#         135
  C:ACEFH         LINE#         136
  C:ACF1H         LINE#         137
  C:ACF1H         LINE#         138
  C:AD11H         LINE#         139
  C:AD2CH         LINE#         140
  C:AD31H         LINE#         141
  C:AD37H         LINE#         142
  C:AD45H         LINE#         143
  C:AD48H         LINE#         144
  C:AD59H         LINE#         145
  C:AD61H         LINE#         146
  -------         ENDPROC       _V_SCAN
  -------         PROC          _W_SCAN
  X:0230H         SYMBOL        v
  -------         DO            
  X:0231H         SYMBOL        Miku
  X:0271H         SYMBOL        i
  -------         ENDDO         
  C:BF87H         LINE#         148
  C:BF8CH         LINE#         149
  C:BF8CH         LINE#         150
  C:BF9FH         LINE#         159
  C:BFB0H         LINE#         160
  C:BFB0H         LINE#         161
  C:BFD0H         LINE#         163
  C:BFD8H         LINE#         167
  C:BFDBH         LINE#         168
  C:BFDBH         LINE#         169
  C:BFE0H         LINE#         170
  C:BFE0H         LINE#         171
  C:BFE4H         LINE#         173
  C:BFE4H         LINE#         174
  C:BFE4H         LINE#         175
  C:BFEAH         LINE#         176
  C:BFEDH         LINE#         196
  C:BFEFH         LINE#         197
  C:BFF7H         LINE#         198
  -------         ENDPROC       _W_SCAN
  -------         PROC          YINYUE_MOSHI
  C:7D6DH         LINE#         7
  C:7D6DH         LINE#         8
  C:7D6DH         LINE#         9
  C:7D76H         LINE#         10
  C:7D76H         LINE#         11
  C:7D79H         LINE#         12
  C:7D7BH         LINE#         13
  C:7D7DH         LINE#         14
  C:7D80H         LINE#         15
  C:7D87H         LINE#         16
BL51 BANKED LINKER/LOCATER V6.22.2.0                                                  06/01/2023  21:05:43  PAGE 92


  C:7D8EH         LINE#         17
  C:7D8EH         LINE#         18
  C:7D91H         LINE#         19
  C:7D93H         LINE#         20
  C:7D95H         LINE#         21
  C:7D95H         LINE#         22
  C:7D95H         LINE#         23
  C:7D9BH         LINE#         24
  C:7D9BH         LINE#         25
  C:7D9EH         LINE#         26
  C:7DA7H         LINE#         27
  C:7DA7H         LINE#         28
  C:7DA7H         LINE#         29
  C:7DA7H         LINE#         31
  C:7DA7H         LINE#         32
  C:7DAAH         LINE#         33
  C:7DAAH         LINE#         34
  C:7DAEH         LINE#         35
  C:7DB2H         LINE#         36
  C:7DB2H         LINE#         37
  C:7DB2H         LINE#         38
  C:7DB5H         LINE#         39
  C:7DBEH         LINE#         40
  C:7DBEH         LINE#         41
  C:7DBEH         LINE#         42
  C:7DBEH         LINE#         44
  C:7DBEH         LINE#         45
  C:7DC1H         LINE#         46
  C:7DC1H         LINE#         47
  C:7DC5H         LINE#         48
  C:7DCAH         LINE#         49
  C:7DCAH         LINE#         50
  C:7DCAH         LINE#         51
  C:7DCDH         LINE#         52
  C:7DD6H         LINE#         53
  C:7DD6H         LINE#         54
  C:7DD6H         LINE#         55
  C:7DD6H         LINE#         57
  C:7DD6H         LINE#         58
  C:7DD9H         LINE#         59
  C:7DD9H         LINE#         60
  C:7DDDH         LINE#         61
  C:7DE2H         LINE#         62
  C:7DE2H         LINE#         64
  C:7DE2H         LINE#         65
  C:7DE5H         LINE#         66
  C:7DEEH         LINE#         67
  C:7DEEH         LINE#         68
  C:7DEEH         LINE#         69
  C:7DEEH         LINE#         71
  C:7DEEH         LINE#         72
  C:7DF1H         LINE#         73
  C:7DF1H         LINE#         74
  C:7DF5H         LINE#         75
  C:7DFAH         LINE#         76
  C:7DFAH         LINE#         77
  C:7DFAH         LINE#         78
BL51 BANKED LINKER/LOCATER V6.22.2.0                                                  06/01/2023  21:05:43  PAGE 93


  C:7DFDH         LINE#         79
  C:7E06H         LINE#         80
  C:7E06H         LINE#         81
  C:7E06H         LINE#         82
  C:7E06H         LINE#         84
  C:7E06H         LINE#         85
  C:7E09H         LINE#         86
  C:7E09H         LINE#         87
  C:7E0DH         LINE#         88
  C:7E12H         LINE#         89
  C:7E12H         LINE#         90
  C:7E12H         LINE#         91
  C:7E15H         LINE#         92
  C:7E1EH         LINE#         93
  C:7E1EH         LINE#         94
  C:7E1EH         LINE#         95
  C:7E1EH         LINE#         97
  C:7E1EH         LINE#         98
  C:7E21H         LINE#         99
  C:7E21H         LINE#         100
  C:7E25H         LINE#         101
  C:7E2AH         LINE#         102
  C:7E2AH         LINE#         103
  C:7E2AH         LINE#         104
  C:7E2DH         LINE#         105
  C:7E36H         LINE#         106
  C:7E36H         LINE#         107
  C:7E36H         LINE#         108
  C:7E36H         LINE#         110
  C:7E36H         LINE#         111
  C:7E39H         LINE#         112
  C:7E39H         LINE#         113
  C:7E3DH         LINE#         114
  C:7E42H         LINE#         115
  C:7E42H         LINE#         116
  C:7E42H         LINE#         117
  C:7E45H         LINE#         118
  C:7E4EH         LINE#         119
  C:7E4EH         LINE#         120
  C:7E4EH         LINE#         121
  C:7E4EH         LINE#         123
  C:7E4EH         LINE#         124
  C:7E51H         LINE#         125
  C:7E51H         LINE#         126
  C:7E55H         LINE#         127
  C:7E59H         LINE#         128
  C:7E59H         LINE#         129
  C:7E59H         LINE#         130
  C:7E5CH         LINE#         131
  C:7E65H         LINE#         132
  C:7E65H         LINE#         133
  C:7E65H         LINE#         134
  C:7E65H         LINE#         136
  C:7E65H         LINE#         137
  C:7E68H         LINE#         138
  C:7E68H         LINE#         139
  C:7E6CH         LINE#         140
BL51 BANKED LINKER/LOCATER V6.22.2.0                                                  06/01/2023  21:05:43  PAGE 94


  C:7E71H         LINE#         141
  C:7E71H         LINE#         142
  C:7E71H         LINE#         143
  C:7E74H         LINE#         144
  C:7E7DH         LINE#         145
  C:7E7DH         LINE#         146
  C:7E7DH         LINE#         147
  C:7E7DH         LINE#         149
  C:7E7DH         LINE#         150
  C:7E80H         LINE#         151
  C:7E80H         LINE#         152
  C:7E84H         LINE#         153
  C:7E89H         LINE#         154
  C:7E89H         LINE#         155
  C:7E89H         LINE#         156
  C:7E8CH         LINE#         157
  C:7E95H         LINE#         158
  C:7E95H         LINE#         159
  C:7E95H         LINE#         160
  C:7E95H         LINE#         162
  C:7E95H         LINE#         163
  C:7E98H         LINE#         164
  C:7E98H         LINE#         165
  C:7E9CH         LINE#         166
  C:7EA1H         LINE#         167
  C:7EA1H         LINE#         168
  C:7EA1H         LINE#         169
  C:7EA4H         LINE#         170
  C:7EAAH         LINE#         171
  C:7EAAH         LINE#         172
  C:7EABH         LINE#         173
  C:7EABH         LINE#         175
  C:7EABH         LINE#         176
  C:7EAEH         LINE#         177
  C:7EAEH         LINE#         178
  C:7EB3H         LINE#         179
  C:7EB8H         LINE#         180
  C:7EB8H         LINE#         181
  C:7EB8H         LINE#         182
  C:7EBBH         LINE#         183
  C:7EC4H         LINE#         184
  C:7EC4H         LINE#         185
  C:7EC4H         LINE#         186
  C:7EC4H         LINE#         188
  C:7EC4H         LINE#         189
  C:7EC7H         LINE#         190
  C:7EC7H         LINE#         191
  C:7ECBH         LINE#         192
  C:7ECEH         LINE#         193
  C:7ECEH         LINE#         194
  C:7ECEH         LINE#         195
  C:7ED1H         LINE#         196
  C:7EDAH         LINE#         197
  C:7EDAH         LINE#         198
  C:7EDAH         LINE#         199
  C:7EDAH         LINE#         201
  C:7EDAH         LINE#         202
BL51 BANKED LINKER/LOCATER V6.22.2.0                                                  06/01/2023  21:05:43  PAGE 95


  C:7EE0H         LINE#         203
  C:7EE0H         LINE#         204
  C:7EE0H         LINE#         205
  C:7EE0H         LINE#         206
  C:7EE0H         LINE#         207
  C:7EE0H         LINE#         208
  C:7EE3H         LINE#         209
  C:7EE9H         LINE#         210
  C:7EE9H         LINE#         211
  C:7EECH         LINE#         212
  C:7EF5H         LINE#         213
  C:7EF5H         LINE#         214
  C:7EF5H         LINE#         215
  C:7EF5H         LINE#         217
  C:7EF5H         LINE#         218
  C:7F02H         LINE#         219
  C:7F10H         LINE#         220
  C:7F1EH         LINE#         221
  C:7F2CH         LINE#         222
  C:7F3AH         LINE#         223
  C:7F49H         LINE#         224
  C:7F5BH         LINE#         225
  C:7F68H         LINE#         226
  C:7F76H         LINE#         227
  C:7F84H         LINE#         228
  C:7F92H         LINE#         229
  C:7FA0H         LINE#         230
  C:7FB0H         LINE#         231
  C:7FC0H         LINE#         232
  C:7FD2H         LINE#         233
  C:7FD2H         LINE#         234
  C:7FD2H         LINE#         235
  C:7FD5H         LINE#         236
  C:7FD5H         LINE#         237
  -------         ENDPROC       YINYUE_MOSHI
  -------         PROC          DONGHUA_MOSHI
  C:64CAH         LINE#         240
  C:64CAH         LINE#         241
  C:64CAH         LINE#         242
  C:64D3H         LINE#         243
  C:64D3H         LINE#         244
  C:64D6H         LINE#         245
  C:64D8H         LINE#         246
  C:64DAH         LINE#         247
  C:64DDH         LINE#         248
  C:64E0H         LINE#         249
  C:64E0H         LINE#         250
  C:64E3H         LINE#         251
  C:64E5H         LINE#         252
  C:64E7H         LINE#         253
  C:64E7H         LINE#         254
  C:64E7H         LINE#         255
  C:64EAH         LINE#         256
  C:64EAH         LINE#         257
  C:64ECH         LINE#         258
  C:64EFH         LINE#         259
  C:64F8H         LINE#         261
BL51 BANKED LINKER/LOCATER V6.22.2.0                                                  06/01/2023  21:05:43  PAGE 96


  C:64F8H         LINE#         262
  C:64FBH         LINE#         263
  C:64FBH         LINE#         264
  C:64FEH         LINE#         265
  C:64FEH         LINE#         266
  C:64FEH         LINE#         322
  C:6501H         LINE#         323
  C:650AH         LINE#         325
  C:650AH         LINE#         326
  C:650DH         LINE#         327
  C:650DH         LINE#         328
  C:6510H         LINE#         329
  C:6510H         LINE#         330
  C:6510H         LINE#         349
  C:6513H         LINE#         350
  C:651CH         LINE#         352
  C:651CH         LINE#         353
  C:651FH         LINE#         354
  C:651FH         LINE#         355
  C:6522H         LINE#         356
  C:6522H         LINE#         357
  C:6522H         LINE#         485
  C:6525H         LINE#         486
  C:652EH         LINE#         488
  C:652EH         LINE#         489
  C:6531H         LINE#         490
  C:6531H         LINE#         491
  C:6534H         LINE#         492
  C:6534H         LINE#         493
  C:6534H         LINE#         494
  C:6537H         LINE#         495
  C:6540H         LINE#         497
  C:6540H         LINE#         498
  C:6543H         LINE#         499
  C:6543H         LINE#         500
  C:6546H         LINE#         501
  C:6546H         LINE#         502
  C:6546H         LINE#         503
  C:6548H         LINE#         504
  C:654BH         LINE#         505
  C:6554H         LINE#         507
  C:6554H         LINE#         508
  C:6557H         LINE#         509
  C:6557H         LINE#         510
  C:6557H         LINE#         511
  C:6557H         LINE#         512
  C:6557H         LINE#         671
  C:655AH         LINE#         672
  C:655DH         LINE#         673
  C:655DH         LINE#         674
  C:6560H         LINE#         675
  C:6569H         LINE#         676
  C:6569H         LINE#         677
  C:6569H         LINE#         678
  C:6569H         LINE#         680
  C:6569H         LINE#         681
  C:6576H         LINE#         682
BL51 BANKED LINKER/LOCATER V6.22.2.0                                                  06/01/2023  21:05:43  PAGE 97


  C:6583H         LINE#         683
  C:65A1H         LINE#         684
  C:65AEH         LINE#         685
  C:65BBH         LINE#         686
  C:65C8H         LINE#         687
  C:65D7H         LINE#         688
  C:65E4H         LINE#         689
  C:65F1H         LINE#         690
  C:65FEH         LINE#         691
  C:660BH         LINE#         692
  C:6620H         LINE#         693
  C:662DH         LINE#         694
  C:663AH         LINE#         695
  C:6647H         LINE#         696
  C:6654H         LINE#         697
  C:6661H         LINE#         698
  C:666EH         LINE#         699
  C:667BH         LINE#         700
  C:6688H         LINE#         701
  C:6697H         LINE#         702
  C:66A4H         LINE#         703
  C:66B1H         LINE#         704
  C:66BEH         LINE#         705
  C:66CBH         LINE#         706
  C:66D8H         LINE#         707
  C:66E5H         LINE#         709
  C:66F2H         LINE#         710
  C:66FFH         LINE#         711
  C:670CH         LINE#         712
  C:6719H         LINE#         713
  C:6727H         LINE#         714
  C:6735H         LINE#         715
  C:6743H         LINE#         716
  C:6751H         LINE#         717
  C:675FH         LINE#         718
  C:676DH         LINE#         719
  C:677BH         LINE#         720
  C:6789H         LINE#         721
  C:6797H         LINE#         722
  C:67A4H         LINE#         723
  C:67B1H         LINE#         724
  C:67BEH         LINE#         725
  C:67CBH         LINE#         726
  C:67DDH         LINE#         727
  C:67DDH         LINE#         728
  C:67DDH         LINE#         729
  C:67E0H         LINE#         730
  C:67E0H         LINE#         731
  -------         ENDPROC       DONGHUA_MOSHI
  -------         PROC          SHANGWEIJI_MOSHI
  -------         DO            
  D:0007H         SYMBOL        i
  -------         ENDDO         
  C:C067H         LINE#         734
  C:C067H         LINE#         735
  C:C067H         LINE#         737
  C:C06DH         LINE#         738
BL51 BANKED LINKER/LOCATER V6.22.2.0                                                  06/01/2023  21:05:43  PAGE 98


  C:C06DH         LINE#         739
  C:C06DH         LINE#         740
  C:C06DH         LINE#         741
  C:C076H         LINE#         742
  C:C078H         LINE#         743
  C:C07BH         LINE#         744
  C:C07DH         LINE#         745
  C:C07FH         LINE#         746
  C:C082H         LINE#         747
  C:C089H         LINE#         748
  C:C090H         LINE#         749
  C:C093H         LINE#         750
  C:C096H         LINE#         751
  C:C096H         LINE#         752
  C:C096H         LINE#         753
  C:C099H         LINE#         754
  C:C0B0H         LINE#         755
  C:C0B0H         LINE#         756
  C:C0B5H         LINE#         757
  C:C0B5H         LINE#         758
  C:C0B8H         LINE#         759
  C:C0B9H         LINE#         760
  C:C0B9H         LINE#         762
  C:C0B9H         LINE#         763
  C:C0BEH         LINE#         764
  C:C0BEH         LINE#         765
  C:C0C1H         LINE#         766
  C:C0C2H         LINE#         767
  C:C0C2H         LINE#         768
  C:C0C7H         LINE#         769
  C:C0C7H         LINE#         770
  C:C0CAH         LINE#         771
  C:C0CBH         LINE#         772
  C:C0CBH         LINE#         773
  C:C0D0H         LINE#         774
  C:C0D0H         LINE#         775
  C:C0D3H         LINE#         776
  C:C0D3H         LINE#         777
  C:C0D3H         LINE#         778
  C:C0D3H         LINE#         779
  C:C0D3H         LINE#         780
  C:C0D3H         LINE#         781
  C:C0D3H         LINE#         782
  -------         ENDPROC       SHANGWEIJI_MOSHI
  -------         PROC          XIUGAIDONGHUA_MOSHI
  C:9AA6H         LINE#         784
  C:9AA6H         LINE#         785
  C:9AA6H         LINE#         787
  C:9AAFH         LINE#         788
  C:9AAFH         LINE#         789
  C:9AB2H         LINE#         790
  C:9AB4H         LINE#         791
  C:9AB6H         LINE#         792
  C:9AB9H         LINE#         793
  C:9AC4H         LINE#         794
  C:9ACDH         LINE#         795
  C:9AD0H         LINE#         796
BL51 BANKED LINKER/LOCATER V6.22.2.0                                                  06/01/2023  21:05:43  PAGE 99


  C:9AD3H         LINE#         797
  C:9AD5H         LINE#         798
  C:9AD7H         LINE#         800
  C:9AD7H         LINE#         801
  C:9AD7H         LINE#         802
  C:9ADDH         LINE#         803
  C:9ADDH         LINE#         804
  C:9AE0H         LINE#         805
  C:9AE9H         LINE#         807
  C:9AE9H         LINE#         808
  C:9AECH         LINE#         809
  C:9AECH         LINE#         810
  C:9AEEH         LINE#         811
  C:9AF1H         LINE#         812
  C:9AF1H         LINE#         813
  C:9AF4H         LINE#         814
  C:9AF6H         LINE#         816
  C:9AF6H         LINE#         817
  C:9AF9H         LINE#         818
  C:9AF9H         LINE#         819
  C:9AF9H         LINE#         820
  C:9AF9H         LINE#         821
  C:9AFCH         LINE#         822
  C:9B05H         LINE#         824
  C:9B05H         LINE#         825
  C:9B08H         LINE#         826
  C:9B08H         LINE#         827
  C:9B0AH         LINE#         828
  C:9B0EH         LINE#         829
  C:9B11H         LINE#         830
  C:9B11H         LINE#         831
  C:9B14H         LINE#         833
  C:9B16H         LINE#         835
  C:9B16H         LINE#         836
  C:9B19H         LINE#         837
  C:9B19H         LINE#         838
  C:9B19H         LINE#         839
  C:9B19H         LINE#         840
  C:9B1CH         LINE#         841
  C:9B25H         LINE#         843
  C:9B25H         LINE#         844
  C:9B28H         LINE#         845
  C:9B28H         LINE#         846
  C:9B2AH         LINE#         847
  C:9B2EH         LINE#         848
  C:9B31H         LINE#         849
  C:9B31H         LINE#         850
  C:9B41H         LINE#         851
  C:9B43H         LINE#         853
  C:9B43H         LINE#         854
  C:9B5EH         LINE#         855
  C:9B5EH         LINE#         856
  C:9B5EH         LINE#         857
  C:9B5EH         LINE#         858
  C:9B61H         LINE#         859
  C:9B68H         LINE#         861
  C:9B68H         LINE#         862
BL51 BANKED LINKER/LOCATER V6.22.2.0                                                  06/01/2023  21:05:43  PAGE 100


  C:9B6EH         LINE#         863
  C:9B6EH         LINE#         864
  C:9B70H         LINE#         865
  C:9B73H         LINE#         866
  C:9B73H         LINE#         867
  C:9B73H         LINE#         868
  C:9B76H         LINE#         870
  C:9B76H         LINE#         872
  C:9B76H         LINE#         873
  C:9B76H         LINE#         874
  C:9B76H         LINE#         875
  C:9B76H         LINE#         876
  C:9B79H         LINE#         877
  C:9B7FH         LINE#         878
  C:9B7FH         LINE#         879
  C:9B82H         LINE#         880
  C:9B8BH         LINE#         881
  C:9B8BH         LINE#         882
  C:9B8BH         LINE#         883
  C:9B8BH         LINE#         885
  C:9B8BH         LINE#         886
  C:9BA1H         LINE#         887
  C:9BB8H         LINE#         888
  C:9BF2H         LINE#         889
  C:9BFBH         LINE#         890
  C:9BFBH         LINE#         891
  C:9BFDH         LINE#         892
  C:9C00H         LINE#         893
  C:9C00H         LINE#         894
  C:9C03H         LINE#         895
  C:9C06H         LINE#         897
  C:9C06H         LINE#         899
  C:9C22H         LINE#         900
  C:9C22H         LINE#         901
  C:9C22H         LINE#         902
  C:9C22H         LINE#         903
  C:9C22H         LINE#         904
  C:9C25H         LINE#         905
  C:9C25H         LINE#         906
  -------         ENDPROC       XIUGAIDONGHUA_MOSHI
  -------         PROC          INIT
  C:CAF5H         LINE#         68
  C:CAF5H         LINE#         69
  C:CAF5H         LINE#         70
  C:CAF8H         LINE#         71
  C:CAFBH         LINE#         72
  C:CAFEH         LINE#         73
  C:CB01H         LINE#         74
  C:CB04H         LINE#         75
  C:CB06H         LINE#         76
  C:CB09H         LINE#         77
  C:CB0BH         LINE#         78
  C:CB0EH         LINE#         79
  C:CB10H         LINE#         80
  C:CB13H         LINE#         81
  -------         ENDPROC       INIT
  -------         PROC          ADC0_INIT
BL51 BANKED LINKER/LOCATER V6.22.2.0                                                  06/01/2023  21:05:43  PAGE 101


  -------         DO            
  D:0007H         SYMBOL        i
  -------         ENDDO         
  C:000EH         LINE#         83
  C:000EH         LINE#         84
  C:000EH         LINE#         86
  C:0011H         LINE#         87
  C:0014H         LINE#         88
  C:0017H         LINE#         89
  C:001AH         LINE#         90
  C:0021H         LINE#         91
  -------         ENDPROC       ADC0_INIT
  -------         PROC          L?2742
  -------         ENDPROC       L?2742
  -------         PROC          SINTER
  C:CBEBH         LINE#         93
  C:CBEBH         LINE#         94
  C:CBEBH         LINE#         95
  C:CBEEH         LINE#         96
  C:CBF1H         LINE#         97
  C:CBF4H         LINE#         98
  C:CBF7H         LINE#         99
  C:CBF9H         LINE#         100
  C:CBFBH         LINE#         101
  -------         ENDPROC       SINTER
  -------         PROC          INIT_UART
  C:CA55H         LINE#         103
  C:CA55H         LINE#         104
  C:CA55H         LINE#         105
  C:CA58H         LINE#         106
  C:CA5BH         LINE#         107
  C:CA5EH         LINE#         108
  C:CA61H         LINE#         109
  C:CA64H         LINE#         110
  C:CA67H         LINE#         111
  C:CA6AH         LINE#         112
  C:CA6DH         LINE#         113
  C:CA6FH         LINE#         114
  C:CA71H         LINE#         115
  C:CA73H         LINE#         116
  C:CA75H         LINE#         117
  -------         ENDPROC       INIT_UART
  C:CA13H         SYMBOL        L?2728
  C:CA1AH         SYMBOL        L?2729
  -------         PROC          L?2727
  -------         ENDPROC       L?2727
  C:CA13H         SYMBOL        L?2728
  C:CA1AH         SYMBOL        L?2729
  -------         PROC          _DELAYUS
  D:0006H         SYMBOL        yanshi
  -------         DO            
  D:0004H         SYMBOL        wmys
  -------         ENDDO         
  C:CA1FH         LINE#         119
  C:CA1FH         LINE#         120
  C:CA1FH         LINE#         122
  C:CA30H         LINE#         123
BL51 BANKED LINKER/LOCATER V6.22.2.0                                                  06/01/2023  21:05:43  PAGE 102


  -------         ENDPROC       _DELAYUS
  -------         PROC          DELAY10US
  -------         DO            
  D:0006H         SYMBOL        a
  D:0007H         SYMBOL        b
  -------         ENDDO         
  C:CCA5H         LINE#         124
  C:CCA5H         LINE#         125
  C:CCA5H         LINE#         127
  C:CCA7H         LINE#         128
  C:CCADH         LINE#         129
  -------         ENDPROC       DELAY10US
  -------         PROC          DELAY5US
  -------         DO            
  D:0006H         SYMBOL        a
  D:0007H         SYMBOL        b
  -------         ENDDO         
  C:CCAEH         LINE#         130
  C:CCAEH         LINE#         131
  C:CCAEH         LINE#         133
  C:CCB0H         LINE#         134
  C:CCB6H         LINE#         135
  -------         ENDPROC       DELAY5US
  C:C942H         SYMBOL        L?2708
  -------         PROC          L?2707
  -------         ENDPROC       L?2707
  C:C942H         SYMBOL        L?2708
  -------         PROC          _DELAY
  D:0004H         SYMBOL        ihk
  C:C946H         LINE#         136
  C:C94AH         LINE#         137
  C:C94AH         LINE#         138
  C:C950H         LINE#         140
  C:C950H         LINE#         141
  C:C95AH         LINE#         142
  C:C95AH         LINE#         143
  C:C95DH         LINE#         144
  C:C96CH         LINE#         145
  C:C96CH         LINE#         146
  C:C96CH         LINE#         147
  -------         ENDPROC       _DELAY
  -------         PROC          _DELAYS
  D:0006H         SYMBOL        t
  -------         DO            
  D:0004H         SYMBOL        i
  -------         ENDDO         
  C:CAB6H         LINE#         148
  C:CAB6H         LINE#         149
  C:CAB6H         LINE#         151
  C:CAC0H         LINE#         152
  C:CAD5H         LINE#         153
  -------         ENDPROC       _DELAYS
  -------         PROC          _HANSAO
  D:0005H         SYMBOL        hs
  C:C2C8H         LINE#         155
  C:C2CAH         LINE#         156
  C:C2CAH         LINE#         157
BL51 BANKED LINKER/LOCATER V6.22.2.0                                                  06/01/2023  21:05:43  PAGE 103


  C:C2D0H         LINE#         158
  C:C2D0H         LINE#         159
  C:C2D3H         LINE#         160
  C:C2D3H         LINE#         161
  C:C2D7H         LINE#         162
  C:C2D7H         LINE#         163
  C:C2DAH         LINE#         164
  C:C2DAH         LINE#         165
  C:C2DCH         LINE#         167
  C:C2DCH         LINE#         168
  C:C2E0H         LINE#         169
  C:C2E0H         LINE#         170
  C:C2E3H         LINE#         171
  C:C2E3H         LINE#         172
  C:C2E5H         LINE#         174
  C:C2E5H         LINE#         175
  C:C2E9H         LINE#         176
  C:C2E9H         LINE#         177
  C:C2ECH         LINE#         178
  C:C2ECH         LINE#         179
  C:C2EEH         LINE#         181
  C:C2EEH         LINE#         182
  C:C2F2H         LINE#         183
  C:C2F2H         LINE#         184
  C:C2F5H         LINE#         185
  C:C2F5H         LINE#         186
  C:C2F7H         LINE#         188
  C:C2F7H         LINE#         189
  C:C2FBH         LINE#         190
  C:C2FBH         LINE#         191
  C:C2FEH         LINE#         192
  C:C2FEH         LINE#         193
  C:C300H         LINE#         195
  C:C300H         LINE#         196
  C:C304H         LINE#         197
  C:C304H         LINE#         198
  C:C307H         LINE#         199
  C:C307H         LINE#         200
  C:C309H         LINE#         202
  C:C309H         LINE#         203
  C:C30DH         LINE#         204
  C:C30DH         LINE#         205
  C:C310H         LINE#         206
  C:C310H         LINE#         207
  C:C312H         LINE#         209
  C:C312H         LINE#         210
  C:C315H         LINE#         211
  C:C315H         LINE#         212
  C:C318H         LINE#         213
  C:C31EH         LINE#         214
  C:C321H         LINE#         216
  C:C321H         LINE#         217
  C:C321H         LINE#         218
  C:C321H         LINE#         219
  -------         ENDPROC       _HANSAO
  -------         PROC          _SENDBYTE
  X:0225H         SYMBOL        num1
BL51 BANKED LINKER/LOCATER V6.22.2.0                                                  06/01/2023  21:05:43  PAGE 104


  X:0227H         SYMBOL        num2
  D:0002H         SYMBOL        num3
  X:022BH         SYMBOL        num4
  -------         DO            
  D:0005H         SYMBOL        c
  -------         ENDDO         
  C:C20BH         LINE#         221
  C:C219H         LINE#         222
  C:C219H         LINE#         224
  C:C21BH         LINE#         225
  C:C21BH         LINE#         226
  C:C21DH         LINE#         227
  C:C224H         LINE#         228
  C:C22BH         LINE#         229
  C:C22FH         LINE#         230
  C:C236H         LINE#         231
  C:C238H         LINE#         232
  C:C245H         LINE#         233
  C:C252H         LINE#         234
  C:C259H         LINE#         235
  C:C266H         LINE#         236
  C:C26BH         LINE#         237
  -------         ENDPROC       _SENDBYTE
  -------         PROC          _SENDBYTE1
  X:02BDH         SYMBOL        num1
  X:02BFH         SYMBOL        num2
  D:0002H         SYMBOL        num3
  X:02C3H         SYMBOL        num4
  -------         DO            
  D:0005H         SYMBOL        c
  -------         ENDDO         
  C:C37BH         LINE#         239
  C:C389H         LINE#         240
  C:C389H         LINE#         242
  C:C38BH         LINE#         243
  C:C38BH         LINE#         244
  C:C38DH         LINE#         245
  C:C394H         LINE#         246
  C:C39BH         LINE#         247
  C:C39FH         LINE#         248
  C:C3A6H         LINE#         249
  C:C3A8H         LINE#         250
  C:C3B3H         LINE#         251
  C:C3BCH         LINE#         252
  C:C3C3H         LINE#         253
  C:C3CEH         LINE#         254
  C:C3D3H         LINE#         255
  -------         ENDPROC       _SENDBYTE1
  C:8687H         SYMBOL        L?2710
  C:868EH         SYMBOL        L?2711
  -------         PROC          L?2709
  -------         ENDPROC       L?2709
  C:8687H         SYMBOL        L?2710
  C:868EH         SYMBOL        L?2711
  -------         PROC          _ZHEN
  X:02B8H         SYMBOL        a
  X:02BBH         SYMBOL        v
BL51 BANKED LINKER/LOCATER V6.22.2.0                                                  06/01/2023  21:05:43  PAGE 105


  -------         DO            
  X:02BCH         SYMBOL        layer
  -------         ENDDO         
  C:8692H         LINE#         310
  C:86A0H         LINE#         311
  C:86A0H         LINE#         313
  C:86ADH         LINE#         314
  C:86ADH         LINE#         315
  C:86B0H         LINE#         316
  C:86B0H         LINE#         317
  C:86B6H         LINE#         319
  C:86B6H         LINE#         320
  C:86B9H         LINE#         321
  C:86C4H         LINE#         322
  C:86C4H         LINE#         323
  C:86DBH         LINE#         324
  C:86DBH         LINE#         325
  C:86DBH         LINE#         326
  C:86DBH         LINE#         327
  C:86DDH         LINE#         328
  C:86DDH         LINE#         329
  C:86DDH         LINE#         330
  C:86E2H         LINE#         331
  C:86E2H         LINE#         332
  C:86F9H         LINE#         333
  C:86F9H         LINE#         334
  C:86FCH         LINE#         335
  C:86FEH         LINE#         336
  C:8701H         LINE#         337
  C:8701H         LINE#         338
  C:8701H         LINE#         339
  C:8701H         LINE#         340
  C:87B0H         LINE#         341
  C:8858H         LINE#         342
  C:885AH         LINE#         343
  C:885BH         LINE#         344
  C:885DH         LINE#         345
  C:885FH         LINE#         346
  C:8868H         LINE#         347
  C:886BH         LINE#         348
  C:886DH         LINE#         349
  C:8873H         LINE#         350
  C:8876H         LINE#         351
  C:887CH         LINE#         352
  C:888DH         LINE#         353
  C:8894H         LINE#         354
  C:8897H         LINE#         355
  -------         ENDPROC       _ZHEN
  C:B480H         SYMBOL        L?2733
  -------         PROC          L?2732
  -------         ENDPROC       L?2732
  C:B480H         SYMBOL        L?2733
  -------         PROC          _W_SIDE
  X:0230H         SYMBOL        tab
  X:0233H         SYMBOL        num
  X:0234H         SYMBOL        v
  -------         DO            
BL51 BANKED LINKER/LOCATER V6.22.2.0                                                  06/01/2023  21:05:43  PAGE 106


  X:0235H         SYMBOL        a
  X:0275H         SYMBOL        i
  X:0277H         SYMBOL        j
  -------         ENDDO         
  C:B488H         LINE#         357
  C:B496H         LINE#         358
  C:B496H         LINE#         359
  C:B4A9H         LINE#         361
  C:B4CFH         LINE#         362
  C:B4CFH         LINE#         363
  C:B4E8H         LINE#         364
  C:B539H         LINE#         365
  C:B53FH         LINE#         366
  C:B54DH         LINE#         367
  C:B550H         LINE#         368
  C:B564H         LINE#         369
  -------         ENDPROC       _W_SIDE
  -------         PROC          MAIN
  -------         DO            
  X:022DH         SYMBOL        p
  X:022EH         SYMBOL        k
  X:022FH         SYMBOL        l
  -------         ENDDO         
  C:B946H         LINE#         371
  C:B946H         LINE#         372
  C:B946H         LINE#         373
  C:B94FH         LINE#         374
  C:B952H         LINE#         375
  C:B954H         LINE#         376
  C:B95BH         LINE#         377
  C:B95EH         LINE#         378
  C:B961H         LINE#         379
  C:B966H         LINE#         380
  C:B969H         LINE#         381
  C:B96CH         LINE#         382
  C:B96EH         LINE#         383
  C:B971H         LINE#         384
  C:B974H         LINE#         385
  C:B977H         LINE#         386
  C:B979H         LINE#         387
  C:B97BH         LINE#         388
  C:B97DH         LINE#         389
  C:B97FH         LINE#         390
  C:B981H         LINE#         396
  C:B984H         LINE#         397
  C:B986H         LINE#         398
  C:B986H         LINE#         399
  C:B986H         LINE#         402
  C:B98BH         LINE#         403
  C:B98EH         LINE#         404
  C:B98EH         LINE#         405
  C:B98EH         LINE#         406
  C:B990H         LINE#         407
  C:B990H         LINE#         408
  C:B9ADH         LINE#         409
  C:B9ADH         LINE#         410
  C:B9B2H         LINE#         411
BL51 BANKED LINKER/LOCATER V6.22.2.0                                                  06/01/2023  21:05:43  PAGE 107


  C:B9B2H         LINE#         412
  C:B9B7H         LINE#         413
  C:B9B7H         LINE#         415
  C:B9B7H         LINE#         416
  C:B9BCH         LINE#         417
  C:B9BCH         LINE#         418
  C:B9C1H         LINE#         419
  C:B9C1H         LINE#         420
  C:B9C6H         LINE#         421
  C:B9C6H         LINE#         422
  C:B9C9H         LINE#         423
  C:B9CBH         LINE#         424
  C:B9CBH         LINE#         425
  C:B9D0H         LINE#         426
  C:B9D0H         LINE#         427
  C:B9D3H         LINE#         428
  C:B9D5H         LINE#         429
  C:B9D5H         LINE#         430
  C:B9DBH         LINE#         431
  C:B9DBH         LINE#         432
  C:B9DEH         LINE#         433
  C:B9DEH         LINE#         434
  C:B9DEH         LINE#         435
  C:B9DEH         LINE#         436
  C:B9DEH         LINE#         437
  C:B9DEH         LINE#         438
  C:B9E5H         LINE#         439
  C:B9E5H         LINE#         440
  C:B9E5H         LINE#         441
  C:B9E7H         LINE#         442
  C:B9EAH         LINE#         443
  C:B9EDH         LINE#         444
  C:B9F0H         LINE#         445
  C:B9F3H         LINE#         446
  -------         ENDPROC       MAIN
  -------         PROC          SERIAL
  -------         DO            
  D:000FH         SYMBOL        tempbuff
  -------         ENDDO         
  C:C428H         LINE#         449
  C:C433H         LINE#         451
  C:C435H         LINE#         452
  C:C438H         LINE#         453
  C:C438H         LINE#         454
  C:C43CH         LINE#         455
  C:C444H         LINE#         456
  C:C444H         LINE#         457
  C:C452H         LINE#         458
  C:C462H         LINE#         459
  C:C467H         LINE#         460
  C:C467H         LINE#         461
  C:C46AH         LINE#         462
  C:C46DH         LINE#         463
  C:C470H         LINE#         464
  C:C470H         LINE#         466
  C:C470H         LINE#         467
  C:C470H         LINE#         468
BL51 BANKED LINKER/LOCATER V6.22.2.0                                                  06/01/2023  21:05:43  PAGE 108


  C:C470H         LINE#         469
  C:C470H         LINE#         470
  C:C470H         LINE#         471
  C:C470H         LINE#         472
  C:C472H         LINE#         473
  -------         ENDPROC       SERIAL
  -------         PROC          PRINT1
  -------         DO            
  X:0000H         SYMBOL        layert
  -------         ENDDO         
  C:5DACH         LINE#         475
  C:5DC9H         LINE#         478
  C:5DCBH         LINE#         479
  C:5DCDH         LINE#         481
  C:5DD6H         LINE#         482
  C:5DD6H         LINE#         483
  C:5E3FH         LINE#         484
  C:5EA8H         LINE#         485
  C:5EAAH         LINE#         486
  C:5EABH         LINE#         487
  C:5EADH         LINE#         488
  C:5EAFH         LINE#         489
  C:5EBCH         LINE#         490
  C:5EC2H         LINE#         491
  C:5EC4H         LINE#         492
  C:5ECDH         LINE#         493
  C:5ED2H         LINE#         495
  C:5ED7H         LINE#         496
  C:5EDAH         LINE#         497
  C:5EDFH         LINE#         498
  C:5EDFH         LINE#         499
  C:5EF6H         LINE#         500
  C:5EF6H         LINE#         501
  C:5EF9H         LINE#         503
  C:5EF9H         LINE#         504
  C:5EF9H         LINE#         505
  C:5EFCH         LINE#         506
  C:5EFFH         LINE#         507
  C:5EFFH         LINE#         508
  C:5F08H         LINE#         509
  C:5F08H         LINE#         510
  C:5F71H         LINE#         511
  C:5FDAH         LINE#         513
  C:5FDCH         LINE#         514
  C:5FDDH         LINE#         515
  C:5FDDH         LINE#         516
  C:5FDDH         LINE#         517
  C:5FDDH         LINE#         518
  C:5FE0H         LINE#         519
  C:5FE2H         LINE#         520
  C:5FEBH         LINE#         521
  C:5FF0H         LINE#         523
  C:5FF5H         LINE#         524
  C:5FF8H         LINE#         525
  C:5FFDH         LINE#         526
  C:5FFDH         LINE#         527
  C:6014H         LINE#         528
BL51 BANKED LINKER/LOCATER V6.22.2.0                                                  06/01/2023  21:05:43  PAGE 109


  C:6014H         LINE#         529
  C:6017H         LINE#         531
  C:6017H         LINE#         532
  C:6017H         LINE#         533
  C:601AH         LINE#         534
  C:601DH         LINE#         535
  C:601DH         LINE#         536
  C:6026H         LINE#         537
  C:6026H         LINE#         538
  C:608FH         LINE#         539
  C:60F8H         LINE#         541
  C:60FAH         LINE#         542
  C:60FBH         LINE#         543
  C:60FBH         LINE#         544
  C:60FBH         LINE#         545
  C:60FBH         LINE#         546
  C:60FEH         LINE#         547
  C:6100H         LINE#         548
  C:6109H         LINE#         549
  C:610EH         LINE#         551
  C:6113H         LINE#         552
  C:6116H         LINE#         553
  C:611BH         LINE#         554
  C:611BH         LINE#         555
  C:6132H         LINE#         556
  C:6132H         LINE#         557
  C:6137H         LINE#         559
  C:6137H         LINE#         560
  C:6137H         LINE#         562
  C:613AH         LINE#         563
  C:613DH         LINE#         564
  C:613DH         LINE#         565
  C:613FH         LINE#         566
  C:6141H         LINE#         567
  -------         ENDPROC       PRINT1
  -------         PROC          SHUDU_JIA
  C:BA9CH         LINE#         569
  C:BA9CH         LINE#         570
  C:BA9CH         LINE#         571
  C:BAABH         LINE#         572
  C:BAABH         LINE#         573
  C:BAC4H         LINE#         574
  C:BAC4H         LINE#         575
  C:BAC7H         LINE#         576
  C:BAC9H         LINE#         577
  C:BADBH         LINE#         578
  C:BADBH         LINE#         579
  C:BAE1H         LINE#         580
  C:BAE3H         LINE#         581
  C:BAF5H         LINE#         582
  C:BAF5H         LINE#         583
  C:BAFBH         LINE#         584
  C:BAFDH         LINE#         585
  C:BB0FH         LINE#         586
  C:BB0FH         LINE#         587
  C:BB1DH         LINE#         588
  C:BB1DH         LINE#         589
BL51 BANKED LINKER/LOCATER V6.22.2.0                                                  06/01/2023  21:05:43  PAGE 110


  C:BB36H         LINE#         590
  C:BB36H         LINE#         591
  C:BB3EH         LINE#         592
  C:BB3EH         LINE#         593
  C:BB3EH         LINE#         594
  -------         ENDPROC       SHUDU_JIA
  -------         PROC          SHUDU_JIAN
  C:BBDBH         LINE#         595
  C:BBDBH         LINE#         596
  C:BBDBH         LINE#         597
  C:BBEAH         LINE#         598
  C:BBEAH         LINE#         599
  C:BC03H         LINE#         600
  C:BC03H         LINE#         601
  C:BC06H         LINE#         602
  C:BC08H         LINE#         603
  C:BC1AH         LINE#         604
  C:BC1AH         LINE#         605
  C:BC20H         LINE#         606
  C:BC22H         LINE#         607
  C:BC34H         LINE#         608
  C:BC34H         LINE#         609
  C:BC3AH         LINE#         610
  C:BC3CH         LINE#         611
  C:BC4DH         LINE#         612
  C:BC4DH         LINE#         613
  C:BC5BH         LINE#         614
  C:BC5BH         LINE#         616
  C:BC6AH         LINE#         617
  C:BC6AH         LINE#         618
  C:BC71H         LINE#         619
  C:BC71H         LINE#         620
  C:BC71H         LINE#         621
  -------         ENDPROC       SHUDU_JIAN
  -------         ENDMOD        MAIN

  -------         MODULE        ?C?COPY
  C:8534H         PUBLIC        ?C?COPY
  -------         ENDMOD        ?C?COPY

  -------         MODULE        ?C?CLDPTR
  C:855AH         PUBLIC        ?C?CLDPTR
  -------         ENDMOD        ?C?CLDPTR

  -------         MODULE        ?C?CLDOPTR
  C:8573H         PUBLIC        ?C?CLDOPTR
  -------         ENDMOD        ?C?CLDOPTR

  -------         MODULE        ?C?CSTPTR
  C:85A0H         PUBLIC        ?C?CSTPTR
  -------         ENDMOD        ?C?CSTPTR

  -------         MODULE        ?C?CSTOPTR
  C:85B2H         PUBLIC        ?C?CSTOPTR
  -------         ENDMOD        ?C?CSTOPTR

  -------         MODULE        ?C?IMUL
BL51 BANKED LINKER/LOCATER V6.22.2.0                                                  06/01/2023  21:05:43  PAGE 111


  C:85D4H         PUBLIC        ?C?IMUL
  -------         ENDMOD        ?C?IMUL

  -------         MODULE        ?C?UIDIV
  C:85E6H         PUBLIC        ?C?UIDIV
  -------         ENDMOD        ?C?UIDIV

  -------         MODULE        ?C?SIDIV
  C:863BH         PUBLIC        ?C?SIDIV
  -------         ENDMOD        ?C?SIDIV

  -------         MODULE        ?C?ILDIX
  C:8671H         PUBLIC        ?C?ILDIX
  -------         ENDMOD        ?C?ILDIX

*** WARNING L16: UNCALLED SEGMENT, IGNORED FOR OVERLAY PROCESS
    SEGMENT: ?PR?_TURN_ON?MAIN

*** WARNING L1: UNRESOLVED EXTERNAL SYMBOL
    SYMBOL:  FVB
    MODULE:  main.obj (MAIN)

*** WARNING L2: REFERENCE MADE TO UNRESOLVED EXTERNAL
    SYMBOL:  FVB
    MODULE:  main.obj (MAIN)
    ADDRESS: C097H

Program Size: data=111.7 xdata=775 code=52401
LINK/LOCATE RUN COMPLETE.  3 WARNING(S),  0 ERROR(S)
